---
triple:          'arm64-apple-darwin'
binary-path:     'build/debug/play'
relocations:
  - { offsetInCU: 0xE419, offset: 0xE419, size: 0x8, addend: 0x0, symName: __ZNSt3__1neB8ue170006IPP4UnitEEbRKNS_11__wrap_iterIT_EES8_, symObjAddr: 0x154, symBinAddr: 0x1000021F4, symSize: 0x34 }
  - { offsetInCU: 0xE478, offset: 0xE478, size: 0x8, addend: 0x0, symName: __ZNSt3__1neB8ue170006IPKP4UnitEEbRKNS_11__wrap_iterIT_EES9_, symObjAddr: 0x5EC, symBinAddr: 0x10000268C, symSize: 0x34 }
  - { offsetInCU: 0xEFF1, offset: 0xEFF1, size: 0x8, addend: 0x0, symName: __ZNSt3__1neB8ue170006IPNS_6vectorI10BorderTypeNS_9allocatorIS2_EEEEEEbRKNS_11__wrap_iterIT_EESB_, symObjAddr: 0x890, symBinAddr: 0x100002930, symSize: 0x34 }
  - { offsetInCU: 0xF034, offset: 0xF034, size: 0x8, addend: 0x0, symName: __ZNSt3__1eqB8ue170006IPP4UnitEEbRKNS_11__wrap_iterIT_EES8_, symObjAddr: 0xD8C, symBinAddr: 0x100002E2C, symSize: 0x48 }
  - { offsetInCU: 0xF077, offset: 0xF077, size: 0x8, addend: 0x0, symName: __ZNSt3__1eqB8ue170006IPKP4UnitEEbRKNS_11__wrap_iterIT_EES9_, symObjAddr: 0xDEC, symBinAddr: 0x100002E8C, symSize: 0x48 }
  - { offsetInCU: 0xF0BA, offset: 0xF0BA, size: 0x8, addend: 0x0, symName: __ZNSt3__1eqB8ue170006IPNS_6vectorI10BorderTypeNS_9allocatorIS2_EEEEEEbRKNS_11__wrap_iterIT_EESB_, symObjAddr: 0xE4C, symBinAddr: 0x100002EEC, symSize: 0x48 }
  - { offsetInCU: 0xF0FD, offset: 0xF0FD, size: 0x8, addend: 0x0, symName: __ZNSt3__112__to_addressB8ue170006IKcEEPT_S3_, symObjAddr: 0xED4, symBinAddr: 0x100002F74, symSize: 0x14 }
  - { offsetInCU: 0xF165, offset: 0xF165, size: 0x8, addend: 0x0, symName: __ZNSt3__1miB8ue170006IPKP4UnitS4_EEDTmicldtfp_4baseEcldtfp0_4baseEERKNS_11__wrap_iterIT_EERKNS6_IT0_EE, symObjAddr: 0x1094, symBinAddr: 0x100003134, symSize: 0x48 }
  - { offsetInCU: 0xF1B1, offset: 0xF1B1, size: 0x8, addend: 0x0, symName: __ZNSt3__14moveB8ue170006IPP4UnitS3_EET0_T_S5_S4_, symObjAddr: 0x1154, symBinAddr: 0x1000031F4, symSize: 0x40 }
  - { offsetInCU: 0xF20B, offset: 0xF20B, size: 0x8, addend: 0x0, symName: __ZNSt3__112__to_addressB8ue170006IP4UnitEEPT_S4_, symObjAddr: 0x1350, symBinAddr: 0x1000033F0, symSize: 0x14 }
  - { offsetInCU: 0xF240, offset: 0xF240, size: 0x8, addend: 0x0, symName: __ZNSt3__16__moveB8ue170006INS_17_ClassicAlgPolicyEPP4UnitS4_S4_EENS_4pairIT0_T2_EES6_T1_S7_, symObjAddr: 0x14A4, symBinAddr: 0x100003544, symSize: 0x44 }
  - { offsetInCU: 0xF2AC, offset: 0xF2AC, size: 0x8, addend: 0x0, symName: __ZNSt3__123__dispatch_copy_or_moveB8ue170006INS_17_ClassicAlgPolicyENS_11__move_loopIS1_EENS_14__move_trivialEPP4UnitS7_S7_EENS_4pairIT2_T4_EES9_T3_SA_, symObjAddr: 0x14E8, symBinAddr: 0x100003588, symSize: 0x44 }
  - { offsetInCU: 0xF32A, offset: 0xF32A, size: 0x8, addend: 0x0, symName: __ZNSt3__121__unwrap_and_dispatchB8ue170006INS_10__overloadINS_11__move_loopINS_17_ClassicAlgPolicyEEENS_14__move_trivialEEEPP4UnitS9_S9_Li0EEENS_4pairIT0_T2_EESB_T1_SC_, symObjAddr: 0x152C, symBinAddr: 0x1000035CC, symSize: 0xB4 }
  - { offsetInCU: 0xF3B8, offset: 0xF3B8, size: 0x8, addend: 0x0, symName: __ZNSt3__114__unwrap_rangeB8ue170006IPP4UnitS3_EENS_4pairIT0_S5_EET_S7_, symObjAddr: 0x15E0, symBinAddr: 0x100003680, symSize: 0x60 }
  - { offsetInCU: 0xF54D, offset: 0xF54D, size: 0x8, addend: 0x0, symName: __ZNSt3__113__unwrap_iterB8ue170006IPP4UnitNS_18__unwrap_iter_implIS3_Lb1EEELi0EEEDTclsrT0_8__unwrapclsr3stdE7declvalIT_EEEES7_, symObjAddr: 0x1688, symBinAddr: 0x100003728, symSize: 0x24 }
  - { offsetInCU: 0xF591, offset: 0xF591, size: 0x8, addend: 0x0, symName: __ZNSt3__19make_pairB8ue170006IPP4UnitS3_EENS_4pairINS_18__unwrap_ref_decayIT_E4typeENS5_IT0_E4typeEEEOS6_OS9_, symObjAddr: 0x16AC, symBinAddr: 0x10000374C, symSize: 0x38 }
  - { offsetInCU: 0xF5E0, offset: 0xF5E0, size: 0x8, addend: 0x0, symName: __ZNSt3__114__rewrap_rangeB8ue170006IPP4UnitS3_EET_S4_T0_, symObjAddr: 0x16E4, symBinAddr: 0x100003784, symSize: 0x2C }
  - { offsetInCU: 0xF62C, offset: 0xF62C, size: 0x8, addend: 0x0, symName: __ZNSt3__113__rewrap_iterB8ue170006IPP4UnitS3_NS_18__unwrap_iter_implIS3_Lb1EEEEET_S6_T0_, symObjAddr: 0x1710, symBinAddr: 0x1000037B0, symSize: 0x3C }
  - { offsetInCU: 0xF681, offset: 0xF681, size: 0x8, addend: 0x0, symName: __ZNSt3__119__copy_trivial_implB8ue170006IP4UnitS2_EENS_4pairIPT_PT0_EES5_S5_S7_, symObjAddr: 0x174C, symBinAddr: 0x1000037EC, symSize: 0x80 }
  - { offsetInCU: 0xF6E9, offset: 0xF6E9, size: 0x8, addend: 0x0, symName: __ZNSt3__119__constexpr_memmoveB8ue170006IP4UnitS2_Li0EEEPT_S4_PT0_NS_15__element_countE, symObjAddr: 0x17CC, symBinAddr: 0x10000386C, symSize: 0x64 }
  - { offsetInCU: 0xF757, offset: 0xF757, size: 0x8, addend: 0x0, symName: __ZNSt3__19make_pairB8ue170006IRPP4UnitS3_EENS_4pairINS_18__unwrap_ref_decayIT_E4typeENS6_IT0_E4typeEEEOS7_OSA_, symObjAddr: 0x1830, symBinAddr: 0x1000038D0, symSize: 0x38 }
  - { offsetInCU: 0xF7F9, offset: 0xF7F9, size: 0x8, addend: 0x0, symName: __ZNSt3__13maxB8ue170006ImEERKT_S3_S3_, symObjAddr: 0x1F9C, symBinAddr: 0x10000403C, symSize: 0x2C }
  - { offsetInCU: 0xF83C, offset: 0xF83C, size: 0x8, addend: 0x0, symName: __ZNSt3__13minB8ue170006ImEERKT_S3_S3_, symObjAddr: 0x1FC8, symBinAddr: 0x100004068, symSize: 0x2C }
  - { offsetInCU: 0xFA80, offset: 0xFA80, size: 0x8, addend: 0x0, symName: __ZNSt3__13minB8ue170006ImNS_6__lessIvvEEEERKT_S5_S5_T0_, symObjAddr: 0x2054, symBinAddr: 0x1000040F4, symSize: 0x54 }
  - { offsetInCU: 0xFB1F, offset: 0xFB1F, size: 0x8, addend: 0x0, symName: __ZNSt3__120__throw_length_errorB8ue170006EPKc, symObjAddr: 0x2130, symBinAddr: 0x1000041D0, symSize: 0x64 }
  - { offsetInCU: 0xFB49, offset: 0xFB49, size: 0x8, addend: 0x0, symName: __ZNSt3__13maxB8ue170006ImNS_6__lessIvvEEEERKT_S5_S5_T0_, symObjAddr: 0x2214, symBinAddr: 0x1000042B4, symSize: 0x54 }
  - { offsetInCU: 0xFBA3, offset: 0xFBA3, size: 0x8, addend: 0x0, symName: __ZNSt3__119__allocate_at_leastB8ue170006INS_9allocatorIP4UnitEEEENS_19__allocation_resultINS_16allocator_traitsIT_E7pointerEEERS7_m, symObjAddr: 0x2378, symBinAddr: 0x100004418, symSize: 0x40 }
  - { offsetInCU: 0xFBE6, offset: 0xFBE6, size: 0x8, addend: 0x0, symName: __ZNSt3__117__libcpp_allocateB8ue170006Emm, symObjAddr: 0x2518, symBinAddr: 0x1000045B8, symSize: 0x28 }
  - { offsetInCU: 0xFC23, offset: 0xFC23, size: 0x8, addend: 0x0, symName: __ZNSt3__121__libcpp_operator_newB8ue170006IJmEEEPvDpT_, symObjAddr: 0x2540, symBinAddr: 0x1000045E0, symSize: 0x24 }
  - { offsetInCU: 0xFC5C, offset: 0xFC5C, size: 0x8, addend: 0x0, symName: __ZNSt3__142__uninitialized_allocator_move_if_noexceptB8ue170006INS_9allocatorIP4UnitEENS_16reverse_iteratorIPS3_EES7_S3_vEET1_RT_T0_SB_S8_, symObjAddr: 0x2680, symBinAddr: 0x100004720, symSize: 0x78 }
  - { offsetInCU: 0xFCD9, offset: 0xFCD9, size: 0x8, addend: 0x0, symName: __ZNSt3__14swapB8ue170006IPP4UnitEENS_9enable_ifIXaasr21is_move_constructibleIT_EE5valuesr18is_move_assignableIS5_EE5valueEvE4typeERS5_S8_, symObjAddr: 0x2744, symBinAddr: 0x1000047E4, symSize: 0x3C }
  - { offsetInCU: 0xFD2A, offset: 0xFD2A, size: 0x8, addend: 0x0, symName: __ZNSt3__14moveB8ue170006INS_16reverse_iteratorIPP4UnitEES5_EET0_T_S7_S6_, symObjAddr: 0x282C, symBinAddr: 0x1000048CC, symSize: 0x78 }
  - { offsetInCU: 0xFD84, offset: 0xFD84, size: 0x8, addend: 0x0, symName: __ZNSt3__16__moveB8ue170006INS_17_ClassicAlgPolicyENS_16reverse_iteratorIPP4UnitEES6_S6_EENS_4pairIT0_T2_EES8_T1_S9_, symObjAddr: 0x28A4, symBinAddr: 0x100004944, symSize: 0x64 }
  - { offsetInCU: 0xFDF0, offset: 0xFDF0, size: 0x8, addend: 0x0, symName: __ZNSt3__123__dispatch_copy_or_moveB8ue170006INS_17_ClassicAlgPolicyENS_11__move_loopIS1_EENS_14__move_trivialENS_16reverse_iteratorIPP4UnitEES9_S9_EENS_4pairIT2_T4_EESB_T3_SC_, symObjAddr: 0x2908, symBinAddr: 0x1000049A8, symSize: 0x64 }
  - { offsetInCU: 0xFE6E, offset: 0xFE6E, size: 0x8, addend: 0x0, symName: __ZNSt3__121__unwrap_and_dispatchB8ue170006INS_10__overloadINS_11__move_loopINS_17_ClassicAlgPolicyEEENS_14__move_trivialEEENS_16reverse_iteratorIPP4UnitEESB_SB_Li0EEENS_4pairIT0_T2_EESD_T1_SE_, symObjAddr: 0x296C, symBinAddr: 0x100004A0C, symSize: 0x12C }
  - { offsetInCU: 0xFEFE, offset: 0xFEFE, size: 0x8, addend: 0x0, symName: __ZNSt3__114__unwrap_rangeB8ue170006INS_16reverse_iteratorIPP4UnitEES5_EENS_4pairIT0_S7_EET_S9_, symObjAddr: 0x2A98, symBinAddr: 0x100004B38, symSize: 0x84 }
  - { offsetInCU: 0x100F7, offset: 0x100F7, size: 0x8, addend: 0x0, symName: __ZNSt3__113__unwrap_iterB8ue170006INS_16reverse_iteratorIPP4UnitEENS_18__unwrap_iter_implIS5_Lb0EEELi0EEEDTclsrT0_8__unwrapclsr3stdE7declvalIT_EEEES9_, symObjAddr: 0x2BBC, symBinAddr: 0x100004C5C, symSize: 0x44 }
  - { offsetInCU: 0x1013B, offset: 0x1013B, size: 0x8, addend: 0x0, symName: __ZNSt3__19make_pairB8ue170006INS_16reverse_iteratorIPP4UnitEES5_EENS_4pairINS_18__unwrap_ref_decayIT_E4typeENS7_IT0_E4typeEEEOS8_OSB_, symObjAddr: 0x2C00, symBinAddr: 0x100004CA0, symSize: 0x38 }
  - { offsetInCU: 0x1018A, offset: 0x1018A, size: 0x8, addend: 0x0, symName: __ZNSt3__114__rewrap_rangeB8ue170006INS_16reverse_iteratorIPP4UnitEES5_EET_S6_T0_, symObjAddr: 0x2C38, symBinAddr: 0x100004CD8, symSize: 0x5C }
  - { offsetInCU: 0x101D6, offset: 0x101D6, size: 0x8, addend: 0x0, symName: __ZNSt3__113__rewrap_iterB8ue170006INS_16reverse_iteratorIPP4UnitEES5_NS_18__unwrap_iter_implIS5_Lb0EEEEET_S8_T0_, symObjAddr: 0x2C94, symBinAddr: 0x100004D34, symSize: 0x74 }
  - { offsetInCU: 0x1022B, offset: 0x1022B, size: 0x8, addend: 0x0, symName: __ZNSt3__1neB8ue170006IPP4UnitS3_EEbRKNS_16reverse_iteratorIT_EERKNS4_IT0_EE, symObjAddr: 0x2D08, symBinAddr: 0x100004DA8, symSize: 0x48 }
  - { offsetInCU: 0x1038F, offset: 0x1038F, size: 0x8, addend: 0x0, symName: __ZNSt3__119__libcpp_deallocateB8ue170006EPvmm, symObjAddr: 0x30C0, symBinAddr: 0x100005160, symSize: 0x30 }
  - { offsetInCU: 0x103D7, offset: 0x103D7, size: 0x8, addend: 0x0, symName: __ZNSt3__127__do_deallocate_handle_sizeB8ue170006IJEEEvPvmDpT_, symObjAddr: 0x30F0, symBinAddr: 0x100005190, symSize: 0x28 }
  - { offsetInCU: 0x10415, offset: 0x10415, size: 0x8, addend: 0x0, symName: __ZNSt3__124__libcpp_operator_deleteB8ue170006IJPvEEEvDpT_, symObjAddr: 0x3118, symBinAddr: 0x1000051B8, symSize: 0x24 }
  - { offsetInCU: 0x1044A, offset: 0x1044A, size: 0x8, addend: 0x0, symName: __ZNSt3__112__to_addressB8ue170006INS_6vectorI10BorderTypeNS_9allocatorIS2_EEEEEEPT_S7_, symObjAddr: 0x3800, symBinAddr: 0x1000058A0, symSize: 0x14 }
  - { offsetInCU: 0x1047F, offset: 0x1047F, size: 0x8, addend: 0x0, symName: __ZNSt3__119__allocate_at_leastB8ue170006INS_9allocatorINS_6vectorI10BorderTypeNS1_IS3_EEEEEEEENS_19__allocation_resultINS_16allocator_traitsIT_E7pointerEEERS9_m, symObjAddr: 0x3D5C, symBinAddr: 0x100005DFC, symSize: 0x40 }
  - { offsetInCU: 0x104C2, offset: 0x104C2, size: 0x8, addend: 0x0, symName: __ZNSt3__142__uninitialized_allocator_move_if_noexceptB8ue170006INS_9allocatorINS_6vectorI10BorderTypeNS1_IS3_EEEEEENS_16reverse_iteratorIPS5_EES9_S9_EET2_RT_T0_T1_SA_, symObjAddr: 0x40D8, symBinAddr: 0x100006178, symSize: 0x12C }
  - { offsetInCU: 0x10562, offset: 0x10562, size: 0x8, addend: 0x0, symName: __ZNSt3__14swapB8ue170006IPNS_6vectorI10BorderTypeNS_9allocatorIS2_EEEEEENS_9enable_ifIXaasr21is_move_constructibleIT_EE5valuesr18is_move_assignableIS8_EE5valueEvE4typeERS8_SB_, symObjAddr: 0x4250, symBinAddr: 0x1000062F0, symSize: 0x3C }
  - { offsetInCU: 0x105B3, offset: 0x105B3, size: 0x8, addend: 0x0, symName: __ZNSt3__122__make_exception_guardB8ue170006INS_29_AllocatorDestroyRangeReverseINS_9allocatorINS_6vectorI10BorderTypeNS2_IS4_EEEEEENS_16reverse_iteratorIPS6_EEEEEENS_28__exception_guard_exceptionsIT_EESD_, symObjAddr: 0x439C, symBinAddr: 0x10000643C, symSize: 0x4C }
  - { offsetInCU: 0x105E9, offset: 0x105E9, size: 0x8, addend: 0x0, symName: __ZNSt3__1neB8ue170006IPNS_6vectorI10BorderTypeNS_9allocatorIS2_EEEES6_EEbRKNS_16reverse_iteratorIT_EERKNS7_IT0_EE, symObjAddr: 0x442C, symBinAddr: 0x1000064CC, symSize: 0x48 }
  - { offsetInCU: 0x10635, offset: 0x10635, size: 0x8, addend: 0x0, symName: __ZNSt3__112__to_addressB8ue170006INS_16reverse_iteratorIPNS_6vectorI10BorderTypeNS_9allocatorIS3_EEEEEEvEEu7__decayIDTclsr19__to_address_helperIT_EE6__callclsr3stdE7declvalIRKS9_EEEEESB_, symObjAddr: 0x44A8, symBinAddr: 0x100006548, symSize: 0x24 }
  - { offsetInCU: 0x10694, offset: 0x10694, size: 0x8, addend: 0x0, symName: __ZNSt3__119__allocator_destroyB8ue170006INS_9allocatorINS_6vectorI10BorderTypeNS1_IS3_EEEEEENS_16reverse_iteratorINS7_IPS5_EEEESA_EEvRT_T0_T1_, symObjAddr: 0x49D8, symBinAddr: 0x100006A78, symSize: 0x70 }
  - { offsetInCU: 0x106F9, offset: 0x106F9, size: 0x8, addend: 0x0, symName: __ZNSt3__1neB8ue170006INS_16reverse_iteratorIPNS_6vectorI10BorderTypeNS_9allocatorIS3_EEEEEES8_EEbRKNS1_IT_EERKNS1_IT0_EE, symObjAddr: 0x4A84, symBinAddr: 0x100006B24, symSize: 0x60 }
  - { offsetInCU: 0x10745, offset: 0x10745, size: 0x8, addend: 0x0, symName: __ZNSt3__112__to_addressB8ue170006INS_16reverse_iteratorINS1_IPNS_6vectorI10BorderTypeNS_9allocatorIS3_EEEEEEEEvEEu7__decayIDTclsr19__to_address_helperIT_EE6__callclsr3stdE7declvalIRKSA_EEEEESC_, symObjAddr: 0x4B10, symBinAddr: 0x100006BB0, symSize: 0x24 }
  - { offsetInCU: 0x1077B, offset: 0x1077B, size: 0x8, addend: 0x0, symName: __ZNSt3__112__to_addressB8ue170006I10BorderTypeEEPT_S3_, symObjAddr: 0x4F10, symBinAddr: 0x100006FB0, symSize: 0x14 }
  - { offsetInCU: 0x107D9, offset: 0x107D9, size: 0x8, addend: 0x0, symName: __ZNSt3__112__to_addressB8ue170006IP4CityEEPT_S4_, symObjAddr: 0x5B28, symBinAddr: 0x100007BC8, symSize: 0x14 }
  - { offsetInCU: 0x1080E, offset: 0x1080E, size: 0x8, addend: 0x0, symName: __ZNSt3__119__allocate_at_leastB8ue170006INS_9allocatorIP4CityEEEENS_19__allocation_resultINS_16allocator_traitsIT_E7pointerEEERS7_m, symObjAddr: 0x5EE4, symBinAddr: 0x100007F84, symSize: 0x40 }
  - { offsetInCU: 0x10851, offset: 0x10851, size: 0x8, addend: 0x0, symName: __ZNSt3__142__uninitialized_allocator_move_if_noexceptB8ue170006INS_9allocatorIP4CityEENS_16reverse_iteratorIPS3_EES7_S3_vEET1_RT_T0_SB_S8_, symObjAddr: 0x6238, symBinAddr: 0x1000082D8, symSize: 0x78 }
  - { offsetInCU: 0x108CE, offset: 0x108CE, size: 0x8, addend: 0x0, symName: __ZNSt3__14swapB8ue170006IPP4CityEENS_9enable_ifIXaasr21is_move_constructibleIT_EE5valuesr18is_move_assignableIS5_EE5valueEvE4typeERS5_S8_, symObjAddr: 0x62FC, symBinAddr: 0x10000839C, symSize: 0x3C }
  - { offsetInCU: 0x1091F, offset: 0x1091F, size: 0x8, addend: 0x0, symName: __ZNSt3__14moveB8ue170006INS_16reverse_iteratorIPP4CityEES5_EET0_T_S7_S6_, symObjAddr: 0x642C, symBinAddr: 0x1000084CC, symSize: 0x78 }
  - { offsetInCU: 0x10979, offset: 0x10979, size: 0x8, addend: 0x0, symName: __ZNSt3__16__moveB8ue170006INS_17_ClassicAlgPolicyENS_16reverse_iteratorIPP4CityEES6_S6_EENS_4pairIT0_T2_EES8_T1_S9_, symObjAddr: 0x64A4, symBinAddr: 0x100008544, symSize: 0x64 }
  - { offsetInCU: 0x109E5, offset: 0x109E5, size: 0x8, addend: 0x0, symName: __ZNSt3__123__dispatch_copy_or_moveB8ue170006INS_17_ClassicAlgPolicyENS_11__move_loopIS1_EENS_14__move_trivialENS_16reverse_iteratorIPP4CityEES9_S9_EENS_4pairIT2_T4_EESB_T3_SC_, symObjAddr: 0x6508, symBinAddr: 0x1000085A8, symSize: 0x64 }
  - { offsetInCU: 0x10A63, offset: 0x10A63, size: 0x8, addend: 0x0, symName: __ZNSt3__121__unwrap_and_dispatchB8ue170006INS_10__overloadINS_11__move_loopINS_17_ClassicAlgPolicyEEENS_14__move_trivialEEENS_16reverse_iteratorIPP4CityEESB_SB_Li0EEENS_4pairIT0_T2_EESD_T1_SE_, symObjAddr: 0x656C, symBinAddr: 0x10000860C, symSize: 0x12C }
  - { offsetInCU: 0x10AF3, offset: 0x10AF3, size: 0x8, addend: 0x0, symName: __ZNSt3__114__unwrap_rangeB8ue170006INS_16reverse_iteratorIPP4CityEES5_EENS_4pairIT0_S7_EET_S9_, symObjAddr: 0x6698, symBinAddr: 0x100008738, symSize: 0x84 }
  - { offsetInCU: 0x10C13, offset: 0x10C13, size: 0x8, addend: 0x0, symName: __ZNSt3__113__unwrap_iterB8ue170006INS_16reverse_iteratorIPP4CityEENS_18__unwrap_iter_implIS5_Lb0EEELi0EEEDTclsrT0_8__unwrapclsr3stdE7declvalIT_EEEES9_, symObjAddr: 0x67BC, symBinAddr: 0x10000885C, symSize: 0x44 }
  - { offsetInCU: 0x10C57, offset: 0x10C57, size: 0x8, addend: 0x0, symName: __ZNSt3__19make_pairB8ue170006INS_16reverse_iteratorIPP4CityEES5_EENS_4pairINS_18__unwrap_ref_decayIT_E4typeENS7_IT0_E4typeEEEOS8_OSB_, symObjAddr: 0x6800, symBinAddr: 0x1000088A0, symSize: 0x38 }
  - { offsetInCU: 0x10CA6, offset: 0x10CA6, size: 0x8, addend: 0x0, symName: __ZNSt3__114__rewrap_rangeB8ue170006INS_16reverse_iteratorIPP4CityEES5_EET_S6_T0_, symObjAddr: 0x6838, symBinAddr: 0x1000088D8, symSize: 0x5C }
  - { offsetInCU: 0x10CF2, offset: 0x10CF2, size: 0x8, addend: 0x0, symName: __ZNSt3__113__rewrap_iterB8ue170006INS_16reverse_iteratorIPP4CityEES5_NS_18__unwrap_iter_implIS5_Lb0EEEEET_S8_T0_, symObjAddr: 0x6894, symBinAddr: 0x100008934, symSize: 0x74 }
  - { offsetInCU: 0x10D47, offset: 0x10D47, size: 0x8, addend: 0x0, symName: __ZNSt3__1neB8ue170006IPP4CityS3_EEbRKNS_16reverse_iteratorIT_EERKNS4_IT0_EE, symObjAddr: 0x6908, symBinAddr: 0x1000089A8, symSize: 0x48 }
  - { offsetInCU: 0x10DFF, offset: 0x10DFF, size: 0x8, addend: 0x0, symName: __ZNSt3__119__allocate_at_leastB8ue170006INS_9allocatorI10BorderTypeEEEENS_19__allocation_resultINS_16allocator_traitsIT_E7pointerEEERS6_m, symObjAddr: 0x774C, symBinAddr: 0x1000097EC, symSize: 0x40 }
  - { offsetInCU: 0x10E42, offset: 0x10E42, size: 0x8, addend: 0x0, symName: __ZNSt3__142__uninitialized_allocator_move_if_noexceptB8ue170006INS_9allocatorI10BorderTypeEENS_16reverse_iteratorIPS2_EES6_S2_vEET1_RT_T0_SA_S7_, symObjAddr: 0x79CC, symBinAddr: 0x100009A6C, symSize: 0x78 }
  - { offsetInCU: 0x10EBF, offset: 0x10EBF, size: 0x8, addend: 0x0, symName: __ZNSt3__14swapB8ue170006IP10BorderTypeEENS_9enable_ifIXaasr21is_move_constructibleIT_EE5valuesr18is_move_assignableIS4_EE5valueEvE4typeERS4_S7_, symObjAddr: 0x7A90, symBinAddr: 0x100009B30, symSize: 0x3C }
  - { offsetInCU: 0x10F10, offset: 0x10F10, size: 0x8, addend: 0x0, symName: __ZNSt3__14moveB8ue170006INS_16reverse_iteratorIP10BorderTypeEES4_EET0_T_S6_S5_, symObjAddr: 0x7B78, symBinAddr: 0x100009C18, symSize: 0x78 }
  - { offsetInCU: 0x10F6A, offset: 0x10F6A, size: 0x8, addend: 0x0, symName: __ZNSt3__16__moveB8ue170006INS_17_ClassicAlgPolicyENS_16reverse_iteratorIP10BorderTypeEES5_S5_EENS_4pairIT0_T2_EES7_T1_S8_, symObjAddr: 0x7BF0, symBinAddr: 0x100009C90, symSize: 0x64 }
  - { offsetInCU: 0x10FD6, offset: 0x10FD6, size: 0x8, addend: 0x0, symName: __ZNSt3__123__dispatch_copy_or_moveB8ue170006INS_17_ClassicAlgPolicyENS_11__move_loopIS1_EENS_14__move_trivialENS_16reverse_iteratorIP10BorderTypeEES8_S8_EENS_4pairIT2_T4_EESA_T3_SB_, symObjAddr: 0x7C54, symBinAddr: 0x100009CF4, symSize: 0x64 }
  - { offsetInCU: 0x11054, offset: 0x11054, size: 0x8, addend: 0x0, symName: __ZNSt3__121__unwrap_and_dispatchB8ue170006INS_10__overloadINS_11__move_loopINS_17_ClassicAlgPolicyEEENS_14__move_trivialEEENS_16reverse_iteratorIP10BorderTypeEESA_SA_Li0EEENS_4pairIT0_T2_EESC_T1_SD_, symObjAddr: 0x7CB8, symBinAddr: 0x100009D58, symSize: 0x12C }
  - { offsetInCU: 0x110E4, offset: 0x110E4, size: 0x8, addend: 0x0, symName: __ZNSt3__114__unwrap_rangeB8ue170006INS_16reverse_iteratorIP10BorderTypeEES4_EENS_4pairIT0_S6_EET_S8_, symObjAddr: 0x7DE4, symBinAddr: 0x100009E84, symSize: 0x84 }
  - { offsetInCU: 0x11204, offset: 0x11204, size: 0x8, addend: 0x0, symName: __ZNSt3__113__unwrap_iterB8ue170006INS_16reverse_iteratorIP10BorderTypeEENS_18__unwrap_iter_implIS4_Lb0EEELi0EEEDTclsrT0_8__unwrapclsr3stdE7declvalIT_EEEES8_, symObjAddr: 0x7F08, symBinAddr: 0x100009FA8, symSize: 0x44 }
  - { offsetInCU: 0x11248, offset: 0x11248, size: 0x8, addend: 0x0, symName: __ZNSt3__19make_pairB8ue170006INS_16reverse_iteratorIP10BorderTypeEES4_EENS_4pairINS_18__unwrap_ref_decayIT_E4typeENS6_IT0_E4typeEEEOS7_OSA_, symObjAddr: 0x7F4C, symBinAddr: 0x100009FEC, symSize: 0x38 }
  - { offsetInCU: 0x11297, offset: 0x11297, size: 0x8, addend: 0x0, symName: __ZNSt3__114__rewrap_rangeB8ue170006INS_16reverse_iteratorIP10BorderTypeEES4_EET_S5_T0_, symObjAddr: 0x7F84, symBinAddr: 0x10000A024, symSize: 0x5C }
  - { offsetInCU: 0x112E3, offset: 0x112E3, size: 0x8, addend: 0x0, symName: __ZNSt3__113__rewrap_iterB8ue170006INS_16reverse_iteratorIP10BorderTypeEES4_NS_18__unwrap_iter_implIS4_Lb0EEEEET_S7_T0_, symObjAddr: 0x7FE0, symBinAddr: 0x10000A080, symSize: 0x74 }
  - { offsetInCU: 0x11338, offset: 0x11338, size: 0x8, addend: 0x0, symName: __ZNSt3__1neB8ue170006IP10BorderTypeS2_EEbRKNS_16reverse_iteratorIT_EERKNS3_IT0_EE, symObjAddr: 0x8054, symBinAddr: 0x10000A0F4, symSize: 0x48 }
  - { offsetInCU: 0x113F0, offset: 0x113F0, size: 0x8, addend: 0x0, symName: __ZNSt3__1eqB8ue170006ERKNS_25__hash_map_const_iteratorINS_21__hash_const_iteratorIPNS_11__hash_nodeINS_17__hash_value_typeINS_12basic_stringIcNS_11char_traitsIcEENS_9allocatorIcEEEEP4CityEEPvEEEEEESJ_, symObjAddr: 0x84D8, symBinAddr: 0x10000A578, symSize: 0x30 }
  - { offsetInCU: 0x1142D, offset: 0x1142D, size: 0x8, addend: 0x0, symName: __ZNSt3__120__throw_out_of_rangeB8ue170006EPKc, symObjAddr: 0x8540, symBinAddr: 0x10000A5E0, symSize: 0x64 }
  - { offsetInCU: 0x11457, offset: 0x11457, size: 0x8, addend: 0x0, symName: __ZNSt3__116__constrain_hashB8ue170006Emm, symObjAddr: 0x8838, symBinAddr: 0x10000A8D8, symSize: 0x98 }
  - { offsetInCU: 0x11491, offset: 0x11491, size: 0x8, addend: 0x0, symName: __ZNSt3__116__do_string_hashB8ue170006IPKcEEmT_S3_, symObjAddr: 0x8AAC, symBinAddr: 0x10000AB4C, symSize: 0x3C }
  - { offsetInCU: 0x114D7, offset: 0x114D7, size: 0x8, addend: 0x0, symName: __ZNSt3__110__loadwordB8ue170006ImEET_PKv, symObjAddr: 0x94F4, symBinAddr: 0x10000B594, symSize: 0x20 }
  - { offsetInCU: 0x1151A, offset: 0x1151A, size: 0x8, addend: 0x0, symName: __ZNSt3__14swapB8ue170006ImEENS_9enable_ifIXaasr21is_move_constructibleIT_EE5valuesr18is_move_assignableIS2_EE5valueEvE4typeERS2_S5_, symObjAddr: 0x96B0, symBinAddr: 0x10000B750, symSize: 0x3C }
  - { offsetInCU: 0x1156B, offset: 0x1156B, size: 0x8, addend: 0x0, symName: __ZNSt3__110__loadwordB8ue170006IjEET_PKv, symObjAddr: 0x9740, symBinAddr: 0x10000B7E0, symSize: 0x20 }
  - { offsetInCU: 0x115AE, offset: 0x115AE, size: 0x8, addend: 0x0, symName: __ZNSt3__1eqB8ue170006INS_9allocatorIcEEEEbRKNS_12basic_stringIcNS_11char_traitsIcEET_EES9_, symObjAddr: 0x9A7C, symBinAddr: 0x10000BB1C, symSize: 0x148 }
  - { offsetInCU: 0x11654, offset: 0x11654, size: 0x8, addend: 0x0, symName: __ZNSt3__1eqB8ue170006ERKNS_21__hash_const_iteratorIPNS_11__hash_nodeINS_17__hash_value_typeINS_12basic_stringIcNS_11char_traitsIcEENS_9allocatorIcEEEEP4CityEEPvEEEESH_, symObjAddr: 0x9C4C, symBinAddr: 0x10000BCEC, symSize: 0x30 }
  - { offsetInCU: 0x11CC0, offset: 0x11CC0, size: 0x8, addend: 0x0, symName: __ZSt28__throw_bad_array_new_lengthB8ue170006v, symObjAddr: 0x24E4, symBinAddr: 0x100004584, symSize: 0x34 }
  - { offsetInCU: 0x123D4, offset: 0x123D4, size: 0x8, addend: 0x0, symName: __ZNSt3__16vectorIP4UnitNS_9allocatorIS2_EEE26__swap_out_circular_bufferERNS_14__split_bufferIS2_RS4_EE, symObjAddr: 0x1DE4, symBinAddr: 0x100003E84, symSize: 0x110 }
  - { offsetInCU: 0x12717, offset: 0x12717, size: 0x8, addend: 0x0, symName: __ZNSt3__16vectorINS0_I10BorderTypeNS_9allocatorIS1_EEEENS2_IS4_EEE26__swap_out_circular_bufferERNS_14__split_bufferIS4_RS5_EE, symObjAddr: 0x3624, symBinAddr: 0x1000056C4, symSize: 0x110 }
  - { offsetInCU: 0x12B42, offset: 0x12B42, size: 0x8, addend: 0x0, symName: __ZNSt3__16vectorIP4CityNS_9allocatorIS2_EEE26__swap_out_circular_bufferERNS_14__split_bufferIS2_RS4_EE, symObjAddr: 0x594C, symBinAddr: 0x1000079EC, symSize: 0x110 }
  - { offsetInCU: 0x12B97, offset: 0x12B97, size: 0x8, addend: 0x0, symName: __ZNSt3__16vectorI10BorderTypeNS_9allocatorIS1_EEE26__swap_out_circular_bufferERNS_14__split_bufferIS1_RS3_EE, symObjAddr: 0x72D8, symBinAddr: 0x100009378, symSize: 0x110 }
  - { offsetInCU: 0x154E9, offset: 0x154E9, size: 0x8, addend: 0x0, symName: __ZN4City10removeUnitEP4Unit, symObjAddr: 0x0, symBinAddr: 0x1000020A0, symSize: 0x124 }
  - { offsetInCU: 0x1553A, offset: 0x1553A, size: 0x8, addend: 0x0, symName: __ZNSt3__16vectorIP4UnitNS_9allocatorIS2_EEE5beginB8ue170006Ev, symObjAddr: 0x124, symBinAddr: 0x1000021C4, symSize: 0x30 }
  - { offsetInCU: 0x15560, offset: 0x15560, size: 0x8, addend: 0x0, symName: __ZNSt3__16vectorIP4UnitNS_9allocatorIS2_EEE3endB8ue170006Ev, symObjAddr: 0x188, symBinAddr: 0x100002228, symSize: 0x30 }
  - { offsetInCU: 0x15587, offset: 0x15587, size: 0x8, addend: 0x0, symName: __ZNKSt3__111__wrap_iterIPP4UnitEdeB8ue170006Ev, symObjAddr: 0x1B8, symBinAddr: 0x100002258, symSize: 0x18 }
  - { offsetInCU: 0x155AB, offset: 0x155AB, size: 0x8, addend: 0x0, symName: __ZNSt3__16vectorIP4UnitNS_9allocatorIS2_EEE5eraseB8ue170006ENS_11__wrap_iterIPKS2_EE, symObjAddr: 0x1D0, symBinAddr: 0x100002270, symSize: 0x94 }
  - { offsetInCU: 0x15609, offset: 0x15609, size: 0x8, addend: 0x0, symName: __ZNSt3__111__wrap_iterIPKP4UnitEC1B8ue170006IPS2_EERKNS0_IT_EEPNS_9enable_ifIXsr14is_convertibleIS8_S4_EE5valueEvE4typeE, symObjAddr: 0x264, symBinAddr: 0x100002304, symSize: 0x3C }
  - { offsetInCU: 0x15654, offset: 0x15654, size: 0x8, addend: 0x0, symName: __ZNSt3__111__wrap_iterIPP4UnitEppB8ue170006Ev, symObjAddr: 0x2A0, symBinAddr: 0x100002340, symSize: 0x20 }
  - { offsetInCU: 0x15679, offset: 0x15679, size: 0x8, addend: 0x0, symName: __ZNKSt3__112basic_stringIcNS_11char_traitsIcEENS_9allocatorIcEEE5c_strB8ue170006Ev, symObjAddr: 0x2C0, symBinAddr: 0x100002360, symSize: 0x24 }
  - { offsetInCU: 0x1569E, offset: 0x1569E, size: 0x8, addend: 0x0, symName: __ZN4City7addUnitEP4Unit, symObjAddr: 0x2E4, symBinAddr: 0x100002384, symSize: 0x98 }
  - { offsetInCU: 0x156D2, offset: 0x156D2, size: 0x8, addend: 0x0, symName: __ZNSt3__16vectorIP4UnitNS_9allocatorIS2_EEE9push_backB8ue170006ERKS2_, symObjAddr: 0x37C, symBinAddr: 0x10000241C, symSize: 0x6C }
  - { offsetInCU: 0x15708, offset: 0x15708, size: 0x8, addend: 0x0, symName: __ZNK4City5printEv, symObjAddr: 0x3E8, symBinAddr: 0x100002488, symSize: 0x84 }
  - { offsetInCU: 0x1572F, offset: 0x1572F, size: 0x8, addend: 0x0, symName: __ZNK4City14printOccupantsEv, symObjAddr: 0x46C, symBinAddr: 0x10000250C, symSize: 0x120 }
  - { offsetInCU: 0x157C5, offset: 0x157C5, size: 0x8, addend: 0x0, symName: __ZNKSt3__16vectorIP4UnitNS_9allocatorIS2_EEE5beginB8ue170006Ev, symObjAddr: 0x58C, symBinAddr: 0x10000262C, symSize: 0x30 }
  - { offsetInCU: 0x157EB, offset: 0x157EB, size: 0x8, addend: 0x0, symName: __ZNKSt3__16vectorIP4UnitNS_9allocatorIS2_EEE3endB8ue170006Ev, symObjAddr: 0x5BC, symBinAddr: 0x10000265C, symSize: 0x30 }
  - { offsetInCU: 0x15812, offset: 0x15812, size: 0x8, addend: 0x0, symName: __ZNKSt3__111__wrap_iterIPKP4UnitEdeB8ue170006Ev, symObjAddr: 0x620, symBinAddr: 0x1000026C0, symSize: 0x18 }
  - { offsetInCU: 0x15837, offset: 0x15837, size: 0x8, addend: 0x0, symName: __ZNSt3__111__wrap_iterIPKP4UnitEppB8ue170006Ev, symObjAddr: 0x638, symBinAddr: 0x1000026D8, symSize: 0x20 }
  - { offsetInCU: 0x15AE0, offset: 0x15AE0, size: 0x8, addend: 0x0, symName: __ZN3Map9initListsEm, symObjAddr: 0x658, symBinAddr: 0x1000026F8, symSize: 0xA8 }
  - { offsetInCU: 0x15B67, offset: 0x15B67, size: 0x8, addend: 0x0, symName: __ZNSt3__16vectorINS0_I10BorderTypeNS_9allocatorIS1_EEEENS2_IS4_EEE6resizeEm, symObjAddr: 0x700, symBinAddr: 0x1000027A0, symSize: 0x9C }
  - { offsetInCU: 0x15BAB, offset: 0x15BAB, size: 0x8, addend: 0x0, symName: __ZNSt3__16vectorIP4CityNS_9allocatorIS2_EEE6resizeEm, symObjAddr: 0x79C, symBinAddr: 0x10000283C, symSize: 0x94 }
  - { offsetInCU: 0x15BEF, offset: 0x15BEF, size: 0x8, addend: 0x0, symName: __ZNSt3__16vectorINS0_I10BorderTypeNS_9allocatorIS1_EEEENS2_IS4_EEE5beginB8ue170006Ev, symObjAddr: 0x830, symBinAddr: 0x1000028D0, symSize: 0x30 }
  - { offsetInCU: 0x15C15, offset: 0x15C15, size: 0x8, addend: 0x0, symName: __ZNSt3__16vectorINS0_I10BorderTypeNS_9allocatorIS1_EEEENS2_IS4_EEE3endB8ue170006Ev, symObjAddr: 0x860, symBinAddr: 0x100002900, symSize: 0x30 }
  - { offsetInCU: 0x15C3C, offset: 0x15C3C, size: 0x8, addend: 0x0, symName: __ZNKSt3__111__wrap_iterIPNS_6vectorI10BorderTypeNS_9allocatorIS2_EEEEEdeB8ue170006Ev, symObjAddr: 0x8C4, symBinAddr: 0x100002964, symSize: 0x18 }
  - { offsetInCU: 0x15C60, offset: 0x15C60, size: 0x8, addend: 0x0, symName: __ZNSt3__16vectorI10BorderTypeNS_9allocatorIS1_EEE6resizeEm, symObjAddr: 0x8DC, symBinAddr: 0x10000297C, symSize: 0x94 }
  - { offsetInCU: 0x15CA5, offset: 0x15CA5, size: 0x8, addend: 0x0, symName: __ZNSt3__111__wrap_iterIPNS_6vectorI10BorderTypeNS_9allocatorIS2_EEEEEppB8ue170006Ev, symObjAddr: 0x970, symBinAddr: 0x100002A10, symSize: 0x20 }
  - { offsetInCU: 0x15CCA, offset: 0x15CCA, size: 0x8, addend: 0x0, symName: __ZNK3Map8findCityENSt3__112basic_stringIcNS0_11char_traitsIcEENS0_9allocatorIcEEEE, symObjAddr: 0x990, symBinAddr: 0x100002A30, symSize: 0x8C }
  - { offsetInCU: 0x15CFF, offset: 0x15CFF, size: 0x8, addend: 0x0, symName: __ZNKSt3__113unordered_mapINS_12basic_stringIcNS_11char_traitsIcEENS_9allocatorIcEEEEP4CityNS_4hashIS6_EENS_8equal_toIS6_EENS4_INS_4pairIKS6_S8_EEEEE2atERSE_, symObjAddr: 0xA1C, symBinAddr: 0x100002ABC, symSize: 0x7C }
  - { offsetInCU: 0x15D44, offset: 0x15D44, size: 0x8, addend: 0x0, symName: __ZNK4City5getIDEv, symObjAddr: 0xA98, symBinAddr: 0x100002B38, symSize: 0x18 }
  - { offsetInCU: 0x15D69, offset: 0x15D69, size: 0x8, addend: 0x0, symName: __ZNK3Map7getCityENSt3__112basic_stringIcNS0_11char_traitsIcEENS0_9allocatorIcEEEE, symObjAddr: 0xAB0, symBinAddr: 0x100002B50, symSize: 0x30 }
  - { offsetInCU: 0x15D9F, offset: 0x15D9F, size: 0x8, addend: 0x0, symName: __ZNK3Map7getCityEm, symObjAddr: 0xAE0, symBinAddr: 0x100002B80, symSize: 0x34 }
  - { offsetInCU: 0x15DD4, offset: 0x15DD4, size: 0x8, addend: 0x0, symName: __ZNKSt3__16vectorIP4CityNS_9allocatorIS2_EEEixB8ue170006Em, symObjAddr: 0xB14, symBinAddr: 0x100002BB4, symSize: 0x24 }
  - { offsetInCU: 0x15E0A, offset: 0x15E0A, size: 0x8, addend: 0x0, symName: __ZN3Map7connectERKmS1_10BorderType, symObjAddr: 0xB38, symBinAddr: 0x100002BD8, symSize: 0x8C }
  - { offsetInCU: 0x15E5B, offset: 0x15E5B, size: 0x8, addend: 0x0, symName: __ZNSt3__16vectorINS0_I10BorderTypeNS_9allocatorIS1_EEEENS2_IS4_EEEixB8ue170006Em, symObjAddr: 0xBC4, symBinAddr: 0x100002C64, symSize: 0x2C }
  - { offsetInCU: 0x15E91, offset: 0x15E91, size: 0x8, addend: 0x0, symName: __ZNSt3__16vectorI10BorderTypeNS_9allocatorIS1_EEEixB8ue170006Em, symObjAddr: 0xBF0, symBinAddr: 0x100002C90, symSize: 0x24 }
  - { offsetInCU: 0x15EC7, offset: 0x15EC7, size: 0x8, addend: 0x0, symName: __ZNK3Map5printEv, symObjAddr: 0xC14, symBinAddr: 0x100002CB4, symSize: 0x100 }
  - { offsetInCU: 0x15F28, offset: 0x15F28, size: 0x8, addend: 0x0, symName: __ZNKSt3__16vectorINS0_I10BorderTypeNS_9allocatorIS1_EEEENS2_IS4_EEE4sizeB8ue170006Ev, symObjAddr: 0xD14, symBinAddr: 0x100002DB4, symSize: 0x28 }
  - { offsetInCU: 0x15F4D, offset: 0x15F4D, size: 0x8, addend: 0x0, symName: __ZNKSt3__16vectorINS0_I10BorderTypeNS_9allocatorIS1_EEEENS2_IS4_EEEixB8ue170006Em, symObjAddr: 0xD3C, symBinAddr: 0x100002DDC, symSize: 0x2C }
  - { offsetInCU: 0x15F83, offset: 0x15F83, size: 0x8, addend: 0x0, symName: __ZNKSt3__16vectorI10BorderTypeNS_9allocatorIS1_EEEixB8ue170006Em, symObjAddr: 0xD68, symBinAddr: 0x100002E08, symSize: 0x24 }
  - { offsetInCU: 0x15FB9, offset: 0x15FB9, size: 0x8, addend: 0x0, symName: __ZNKSt3__111__wrap_iterIPP4UnitE4baseB8ue170006Ev, symObjAddr: 0xDD4, symBinAddr: 0x100002E74, symSize: 0x18 }
  - { offsetInCU: 0x15FDE, offset: 0x15FDE, size: 0x8, addend: 0x0, symName: __ZNKSt3__111__wrap_iterIPKP4UnitE4baseB8ue170006Ev, symObjAddr: 0xE34, symBinAddr: 0x100002ED4, symSize: 0x18 }
  - { offsetInCU: 0x16003, offset: 0x16003, size: 0x8, addend: 0x0, symName: __ZNKSt3__111__wrap_iterIPNS_6vectorI10BorderTypeNS_9allocatorIS2_EEEEE4baseB8ue170006Ev, symObjAddr: 0xE94, symBinAddr: 0x100002F34, symSize: 0x18 }
  - { offsetInCU: 0x16028, offset: 0x16028, size: 0x8, addend: 0x0, symName: __ZNKSt3__112basic_stringIcNS_11char_traitsIcEENS_9allocatorIcEEE4dataB8ue170006Ev, symObjAddr: 0xEAC, symBinAddr: 0x100002F4C, symSize: 0x28 }
  - { offsetInCU: 0x1604D, offset: 0x1604D, size: 0x8, addend: 0x0, symName: __ZNKSt3__112basic_stringIcNS_11char_traitsIcEENS_9allocatorIcEEE13__get_pointerB8ue170006Ev, symObjAddr: 0xEE8, symBinAddr: 0x100002F88, symSize: 0x54 }
  - { offsetInCU: 0x16072, offset: 0x16072, size: 0x8, addend: 0x0, symName: __ZNKSt3__112basic_stringIcNS_11char_traitsIcEENS_9allocatorIcEEE9__is_longB8ue170006Ev, symObjAddr: 0xF3C, symBinAddr: 0x100002FDC, symSize: 0x38 }
  - { offsetInCU: 0x16097, offset: 0x16097, size: 0x8, addend: 0x0, symName: __ZNKSt3__112basic_stringIcNS_11char_traitsIcEENS_9allocatorIcEEE18__get_long_pointerB8ue170006Ev, symObjAddr: 0xF74, symBinAddr: 0x100003014, symSize: 0x28 }
  - { offsetInCU: 0x160BC, offset: 0x160BC, size: 0x8, addend: 0x0, symName: __ZNKSt3__112basic_stringIcNS_11char_traitsIcEENS_9allocatorIcEEE19__get_short_pointerB8ue170006Ev, symObjAddr: 0xF9C, symBinAddr: 0x10000303C, symSize: 0x28 }
  - { offsetInCU: 0x160E1, offset: 0x160E1, size: 0x8, addend: 0x0, symName: __ZNKSt3__117__compressed_pairINS_12basic_stringIcNS_11char_traitsIcEENS_9allocatorIcEEE5__repES5_E5firstB8ue170006Ev, symObjAddr: 0xFC4, symBinAddr: 0x100003064, symSize: 0x24 }
  - { offsetInCU: 0x16106, offset: 0x16106, size: 0x8, addend: 0x0, symName: __ZNKSt3__122__compressed_pair_elemINS_12basic_stringIcNS_11char_traitsIcEENS_9allocatorIcEEE5__repELi0ELb0EE5__getB8ue170006Ev, symObjAddr: 0xFE8, symBinAddr: 0x100003088, symSize: 0x14 }
  - { offsetInCU: 0x1612B, offset: 0x1612B, size: 0x8, addend: 0x0, symName: __ZNSt3__114pointer_traitsIPKcE10pointer_toB8ue170006ERS1_, symObjAddr: 0xFFC, symBinAddr: 0x10000309C, symSize: 0x14 }
  - { offsetInCU: 0x1614E, offset: 0x1614E, size: 0x8, addend: 0x0, symName: __ZNSt3__16vectorIP4UnitNS_9allocatorIS2_EEE11__make_iterB8ue170006EPS2_, symObjAddr: 0x1010, symBinAddr: 0x1000030B0, symSize: 0x30 }
  - { offsetInCU: 0x16182, offset: 0x16182, size: 0x8, addend: 0x0, symName: __ZNSt3__111__wrap_iterIPP4UnitEC1B8ue170006ES3_, symObjAddr: 0x1040, symBinAddr: 0x1000030E0, symSize: 0x34 }
  - { offsetInCU: 0x161B9, offset: 0x161B9, size: 0x8, addend: 0x0, symName: __ZNSt3__111__wrap_iterIPP4UnitEC2B8ue170006ES3_, symObjAddr: 0x1074, symBinAddr: 0x100003114, symSize: 0x20 }
  - { offsetInCU: 0x161F0, offset: 0x161F0, size: 0x8, addend: 0x0, symName: __ZNKSt3__16vectorIP4UnitNS_9allocatorIS2_EEE6cbeginB8ue170006Ev, symObjAddr: 0x10DC, symBinAddr: 0x10000317C, symSize: 0x2C }
  - { offsetInCU: 0x16215, offset: 0x16215, size: 0x8, addend: 0x0, symName: __ZNSt3__16vectorIP4UnitNS_9allocatorIS2_EEE17__destruct_at_endB8ue170006EPS2_, symObjAddr: 0x1108, symBinAddr: 0x1000031A8, symSize: 0x4C }
  - { offsetInCU: 0x16258, offset: 0x16258, size: 0x8, addend: 0x0, symName: __ZNKSt3__16vectorIP4UnitNS_9allocatorIS2_EEE4sizeB8ue170006Ev, symObjAddr: 0x1194, symBinAddr: 0x100003234, symSize: 0x28 }
  - { offsetInCU: 0x1627D, offset: 0x1627D, size: 0x8, addend: 0x0, symName: __ZNSt3__16vectorIP4UnitNS_9allocatorIS2_EEE22__base_destruct_at_endB8ue170006EPS2_, symObjAddr: 0x11BC, symBinAddr: 0x10000325C, symSize: 0x8C }
  - { offsetInCU: 0x162C0, offset: 0x162C0, size: 0x8, addend: 0x0, symName: __ZNKSt3__16vectorIP4UnitNS_9allocatorIS2_EEE17__annotate_shrinkB8ue170006Em, symObjAddr: 0x1248, symBinAddr: 0x1000032E8, symSize: 0xB4 }
  - { offsetInCU: 0x162F4, offset: 0x162F4, size: 0x8, addend: 0x0, symName: __ZNSt3__116allocator_traitsINS_9allocatorIP4UnitEEE7destroyB8ue170006IS3_vEEvRS4_PT_, symObjAddr: 0x12FC, symBinAddr: 0x10000339C, symSize: 0x2C }
  - { offsetInCU: 0x16331, offset: 0x16331, size: 0x8, addend: 0x0, symName: __ZNSt3__16vectorIP4UnitNS_9allocatorIS2_EEE7__allocB8ue170006Ev, symObjAddr: 0x1328, symBinAddr: 0x1000033C8, symSize: 0x28 }
  - { offsetInCU: 0x16356, offset: 0x16356, size: 0x8, addend: 0x0, symName: __ZNSt3__19allocatorIP4UnitE7destroyB8ue170006EPS2_, symObjAddr: 0x1370, symBinAddr: 0x100003410, symSize: 0x14 }
  - { offsetInCU: 0x16389, offset: 0x16389, size: 0x8, addend: 0x0, symName: __ZNSt3__117__compressed_pairIPP4UnitNS_9allocatorIS2_EEE6secondB8ue170006Ev, symObjAddr: 0x1384, symBinAddr: 0x100003424, symSize: 0x24 }
  - { offsetInCU: 0x163AE, offset: 0x163AE, size: 0x8, addend: 0x0, symName: __ZNSt3__122__compressed_pair_elemINS_9allocatorIP4UnitEELi1ELb1EE5__getB8ue170006Ev, symObjAddr: 0x13A8, symBinAddr: 0x100003448, symSize: 0x14 }
  - { offsetInCU: 0x163D3, offset: 0x163D3, size: 0x8, addend: 0x0, symName: __ZNKSt3__16vectorIP4UnitNS_9allocatorIS2_EEE31__annotate_contiguous_containerB8ue170006EPKvS7_S7_S7_, symObjAddr: 0x13BC, symBinAddr: 0x10000345C, symSize: 0x20 }
  - { offsetInCU: 0x16424, offset: 0x16424, size: 0x8, addend: 0x0, symName: __ZNKSt3__16vectorIP4UnitNS_9allocatorIS2_EEE4dataB8ue170006Ev, symObjAddr: 0x13DC, symBinAddr: 0x10000347C, symSize: 0x28 }
  - { offsetInCU: 0x16449, offset: 0x16449, size: 0x8, addend: 0x0, symName: __ZNKSt3__16vectorIP4UnitNS_9allocatorIS2_EEE8capacityB8ue170006Ev, symObjAddr: 0x1404, symBinAddr: 0x1000034A4, symSize: 0x40 }
  - { offsetInCU: 0x1646E, offset: 0x1646E, size: 0x8, addend: 0x0, symName: __ZNKSt3__16vectorIP4UnitNS_9allocatorIS2_EEE9__end_capB8ue170006Ev, symObjAddr: 0x1444, symBinAddr: 0x1000034E4, symSize: 0x28 }
  - { offsetInCU: 0x16493, offset: 0x16493, size: 0x8, addend: 0x0, symName: __ZNKSt3__117__compressed_pairIPP4UnitNS_9allocatorIS2_EEE5firstB8ue170006Ev, symObjAddr: 0x146C, symBinAddr: 0x10000350C, symSize: 0x24 }
  - { offsetInCU: 0x164B8, offset: 0x164B8, size: 0x8, addend: 0x0, symName: __ZNKSt3__122__compressed_pair_elemIPP4UnitLi0ELb0EE5__getB8ue170006Ev, symObjAddr: 0x1490, symBinAddr: 0x100003530, symSize: 0x14 }
  - { offsetInCU: 0x16500, offset: 0x16500, size: 0x8, addend: 0x0, symName: __ZNKSt3__114__move_trivialclB8ue170006IP4UnitS3_Li0EEENS_4pairIPT_PT0_EES6_S6_S8_, symObjAddr: 0x1640, symBinAddr: 0x1000036E0, symSize: 0x48 }
  - { offsetInCU: 0x1656C, offset: 0x1656C, size: 0x8, addend: 0x0, symName: __ZNSt3__14pairIPP4UnitS3_EC1B8ue170006IRS3_S3_LPv0EEEOT_OT0_, symObjAddr: 0x1868, symBinAddr: 0x100003908, symSize: 0x3C }
  - { offsetInCU: 0x165C9, offset: 0x165C9, size: 0x8, addend: 0x0, symName: __ZNSt3__14pairIPP4UnitS3_EC2B8ue170006IRS3_S3_LPv0EEEOT_OT0_, symObjAddr: 0x18A4, symBinAddr: 0x100003944, symSize: 0x34 }
  - { offsetInCU: 0x16626, offset: 0x16626, size: 0x8, addend: 0x0, symName: __ZNSt3__118__unwrap_iter_implIPP4UnitLb1EE8__unwrapB8ue170006ES3_, symObjAddr: 0x18D8, symBinAddr: 0x100003978, symSize: 0x24 }
  - { offsetInCU: 0x16649, offset: 0x16649, size: 0x8, addend: 0x0, symName: __ZNSt3__14pairIPP4UnitS3_EC1B8ue170006IS3_S3_LPv0EEEOT_OT0_, symObjAddr: 0x18FC, symBinAddr: 0x10000399C, symSize: 0x3C }
  - { offsetInCU: 0x166A6, offset: 0x166A6, size: 0x8, addend: 0x0, symName: __ZNSt3__14pairIPP4UnitS3_EC2B8ue170006IS3_S3_LPv0EEEOT_OT0_, symObjAddr: 0x1938, symBinAddr: 0x1000039D8, symSize: 0x34 }
  - { offsetInCU: 0x16703, offset: 0x16703, size: 0x8, addend: 0x0, symName: __ZNSt3__118__unwrap_iter_implIPP4UnitLb1EE8__rewrapB8ue170006ES3_S3_, symObjAddr: 0x196C, symBinAddr: 0x100003A0C, symSize: 0x50 }
  - { offsetInCU: 0x16734, offset: 0x16734, size: 0x8, addend: 0x0, symName: __ZNSt3__111__wrap_iterIPKP4UnitEC2B8ue170006IPS2_EERKNS0_IT_EEPNS_9enable_ifIXsr14is_convertibleIS8_S4_EE5valueEvE4typeE, symObjAddr: 0x19BC, symBinAddr: 0x100003A5C, symSize: 0x40 }
  - { offsetInCU: 0x1677F, offset: 0x1677F, size: 0x8, addend: 0x0, symName: __ZNSt3__16vectorIP4UnitNS_9allocatorIS2_EEE9__end_capB8ue170006Ev, symObjAddr: 0x19FC, symBinAddr: 0x100003A9C, symSize: 0x28 }
  - { offsetInCU: 0x167A4, offset: 0x167A4, size: 0x8, addend: 0x0, symName: __ZNSt3__16vectorIP4UnitNS_9allocatorIS2_EEE22__construct_one_at_endB8ue170006IJRKS2_EEEvDpOT_, symObjAddr: 0x1A24, symBinAddr: 0x100003AC4, symSize: 0x90 }
  - { offsetInCU: 0x167F1, offset: 0x167F1, size: 0x8, addend: 0x0, symName: __ZNSt3__16vectorIP4UnitNS_9allocatorIS2_EEE21__push_back_slow_pathIRKS2_EEvOT_, symObjAddr: 0x1AB4, symBinAddr: 0x100003B54, symSize: 0xD8 }
  - { offsetInCU: 0x1684E, offset: 0x1684E, size: 0x8, addend: 0x0, symName: __ZNSt3__117__compressed_pairIPP4UnitNS_9allocatorIS2_EEE5firstB8ue170006Ev, symObjAddr: 0x1B8C, symBinAddr: 0x100003C2C, symSize: 0x24 }
  - { offsetInCU: 0x16873, offset: 0x16873, size: 0x8, addend: 0x0, symName: __ZNSt3__122__compressed_pair_elemIPP4UnitLi0ELb0EE5__getB8ue170006Ev, symObjAddr: 0x1BB0, symBinAddr: 0x100003C50, symSize: 0x14 }
  - { offsetInCU: 0x168B1, offset: 0x168B1, size: 0x8, addend: 0x0, symName: __ZNSt3__16vectorIP4UnitNS_9allocatorIS2_EEE21_ConstructTransactionC1B8ue170006ERS5_m, symObjAddr: 0x1BC4, symBinAddr: 0x100003C64, symSize: 0x3C }
  - { offsetInCU: 0x168F8, offset: 0x168F8, size: 0x8, addend: 0x0, symName: __ZNSt3__116allocator_traitsINS_9allocatorIP4UnitEEE9constructB8ue170006IS3_JRKS3_EvEEvRS4_PT_DpOT0_, symObjAddr: 0x1C00, symBinAddr: 0x100003CA0, symSize: 0x34 }
  - { offsetInCU: 0x1694F, offset: 0x1694F, size: 0x8, addend: 0x0, symName: __ZNSt3__16vectorIP4UnitNS_9allocatorIS2_EEE21_ConstructTransactionD1B8ue170006Ev, symObjAddr: 0x1C34, symBinAddr: 0x100003CD4, symSize: 0x2C }
  - { offsetInCU: 0x16978, offset: 0x16978, size: 0x8, addend: 0x0, symName: __ZNSt3__16vectorIP4UnitNS_9allocatorIS2_EEE21_ConstructTransactionC2B8ue170006ERS5_m, symObjAddr: 0x1C60, symBinAddr: 0x100003D00, symSize: 0x44 }
  - { offsetInCU: 0x169BF, offset: 0x169BF, size: 0x8, addend: 0x0, symName: __ZNSt3__19allocatorIP4UnitE9constructB8ue170006IS2_JRKS2_EEEvPT_DpOT0_, symObjAddr: 0x1CA4, symBinAddr: 0x100003D44, symSize: 0x28 }
  - { offsetInCU: 0x16A14, offset: 0x16A14, size: 0x8, addend: 0x0, symName: __ZNSt3__16vectorIP4UnitNS_9allocatorIS2_EEE21_ConstructTransactionD2B8ue170006Ev, symObjAddr: 0x1CCC, symBinAddr: 0x100003D6C, symSize: 0x20 }
  - { offsetInCU: 0x16A3C, offset: 0x16A3C, size: 0x8, addend: 0x0, symName: __ZNKSt3__16vectorIP4UnitNS_9allocatorIS2_EEE11__recommendB8ue170006Em, symObjAddr: 0x1CEC, symBinAddr: 0x100003D8C, symSize: 0xB4 }
  - { offsetInCU: 0x16A90, offset: 0x16A90, size: 0x8, addend: 0x0, symName: __ZNSt3__114__split_bufferIP4UnitRNS_9allocatorIS2_EEEC1EmmS5_, symObjAddr: 0x1DA0, symBinAddr: 0x100003E40, symSize: 0x44 }
  - { offsetInCU: 0x16AE5, offset: 0x16AE5, size: 0x8, addend: 0x0, symName: __ZNSt3__114__split_bufferIP4UnitRNS_9allocatorIS2_EEED1Ev, symObjAddr: 0x1EF4, symBinAddr: 0x100003F94, symSize: 0x2C }
  - { offsetInCU: 0x16B0F, offset: 0x16B0F, size: 0x8, addend: 0x0, symName: __ZNKSt3__16vectorIP4UnitNS_9allocatorIS2_EEE8max_sizeEv, symObjAddr: 0x1F20, symBinAddr: 0x100003FC0, symSize: 0x60 }
  - { offsetInCU: 0x16B36, offset: 0x16B36, size: 0x8, addend: 0x0, symName: __ZNKSt3__16vectorIP4UnitNS_9allocatorIS2_EEE20__throw_length_errorB8ue170006Ev, symObjAddr: 0x1F80, symBinAddr: 0x100004020, symSize: 0x1C }
  - { offsetInCU: 0x16B65, offset: 0x16B65, size: 0x8, addend: 0x0, symName: __ZNSt3__116allocator_traitsINS_9allocatorIP4UnitEEE8max_sizeB8ue170006IS4_vEEmRKS4_, symObjAddr: 0x1FF4, symBinAddr: 0x100004094, symSize: 0x24 }
  - { offsetInCU: 0x16B93, offset: 0x16B93, size: 0x8, addend: 0x0, symName: __ZNKSt3__16vectorIP4UnitNS_9allocatorIS2_EEE7__allocB8ue170006Ev, symObjAddr: 0x2018, symBinAddr: 0x1000040B8, symSize: 0x28 }
  - { offsetInCU: 0x16BB8, offset: 0x16BB8, size: 0x8, addend: 0x0, symName: __ZNSt3__114numeric_limitsIlE3maxB8ue170006Ev, symObjAddr: 0x2040, symBinAddr: 0x1000040E0, symSize: 0x14 }
  - { offsetInCU: 0x16BD6, offset: 0x16BD6, size: 0x8, addend: 0x0, symName: __ZNKSt3__16__lessIvvEclB8ue170006ImmEEbRKT_RKT0_, symObjAddr: 0x20A8, symBinAddr: 0x100004148, symSize: 0x34 }
  - { offsetInCU: 0x16C29, offset: 0x16C29, size: 0x8, addend: 0x0, symName: __ZNKSt3__19allocatorIP4UnitE8max_sizeB8ue170006Ev, symObjAddr: 0x20DC, symBinAddr: 0x10000417C, symSize: 0x14 }
  - { offsetInCU: 0x16C4E, offset: 0x16C4E, size: 0x8, addend: 0x0, symName: __ZNKSt3__117__compressed_pairIPP4UnitNS_9allocatorIS2_EEE6secondB8ue170006Ev, symObjAddr: 0x20F0, symBinAddr: 0x100004190, symSize: 0x24 }
  - { offsetInCU: 0x16C73, offset: 0x16C73, size: 0x8, addend: 0x0, symName: __ZNKSt3__122__compressed_pair_elemINS_9allocatorIP4UnitEELi1ELb1EE5__getB8ue170006Ev, symObjAddr: 0x2114, symBinAddr: 0x1000041B4, symSize: 0x14 }
  - { offsetInCU: 0x16C98, offset: 0x16C98, size: 0x8, addend: 0x0, symName: __ZNSt3__123__libcpp_numeric_limitsIlLb1EE3maxB8ue170006Ev, symObjAddr: 0x2128, symBinAddr: 0x1000041C8, symSize: 0x8 }
  - { offsetInCU: 0x16CAC, offset: 0x16CAC, size: 0x8, addend: 0x0, symName: __ZNSt12length_errorC1B8ue170006EPKc, symObjAddr: 0x2194, symBinAddr: 0x100004234, symSize: 0x34 }
  - { offsetInCU: 0x16CE3, offset: 0x16CE3, size: 0x8, addend: 0x0, symName: __ZNSt12length_errorC2B8ue170006EPKc, symObjAddr: 0x21C8, symBinAddr: 0x100004268, symSize: 0x4C }
  - { offsetInCU: 0x16D1A, offset: 0x16D1A, size: 0x8, addend: 0x0, symName: __ZNSt3__114__split_bufferIP4UnitRNS_9allocatorIS2_EEEC2EmmS5_, symObjAddr: 0x2268, symBinAddr: 0x100004308, symSize: 0xD4 }
  - { offsetInCU: 0x16D92, offset: 0x16D92, size: 0x8, addend: 0x0, symName: __ZNSt3__117__compressed_pairIPP4UnitRNS_9allocatorIS2_EEEC1B8ue170006IDnS6_EEOT_OT0_, symObjAddr: 0x233C, symBinAddr: 0x1000043DC, symSize: 0x3C }
  - { offsetInCU: 0x16DE9, offset: 0x16DE9, size: 0x8, addend: 0x0, symName: __ZNSt3__114__split_bufferIP4UnitRNS_9allocatorIS2_EEE7__allocB8ue170006Ev, symObjAddr: 0x23B8, symBinAddr: 0x100004458, symSize: 0x28 }
  - { offsetInCU: 0x16E0E, offset: 0x16E0E, size: 0x8, addend: 0x0, symName: __ZNSt3__114__split_bufferIP4UnitRNS_9allocatorIS2_EEE9__end_capB8ue170006Ev, symObjAddr: 0x23E0, symBinAddr: 0x100004480, symSize: 0x28 }
  - { offsetInCU: 0x16E33, offset: 0x16E33, size: 0x8, addend: 0x0, symName: __ZNSt3__117__compressed_pairIPP4UnitRNS_9allocatorIS2_EEEC2B8ue170006IDnS6_EEOT_OT0_, symObjAddr: 0x2408, symBinAddr: 0x1000044A8, symSize: 0x48 }
  - { offsetInCU: 0x16E8A, offset: 0x16E8A, size: 0x8, addend: 0x0, symName: __ZNSt3__122__compressed_pair_elemIPP4UnitLi0ELb0EEC2B8ue170006IDnvEEOT_, symObjAddr: 0x2450, symBinAddr: 0x1000044F0, symSize: 0x1C }
  - { offsetInCU: 0x16ECB, offset: 0x16ECB, size: 0x8, addend: 0x0, symName: __ZNSt3__122__compressed_pair_elemIRNS_9allocatorIP4UnitEELi1ELb0EEC2B8ue170006IS5_vEEOT_, symObjAddr: 0x246C, symBinAddr: 0x10000450C, symSize: 0x20 }
  - { offsetInCU: 0x16F0C, offset: 0x16F0C, size: 0x8, addend: 0x0, symName: __ZNSt3__19allocatorIP4UnitE8allocateB8ue170006Em, symObjAddr: 0x248C, symBinAddr: 0x10000452C, symSize: 0x58 }
  - { offsetInCU: 0x16F3F, offset: 0x16F3F, size: 0x8, addend: 0x0, symName: __ZNSt3__117__compressed_pairIPP4UnitRNS_9allocatorIS2_EEE6secondB8ue170006Ev, symObjAddr: 0x2564, symBinAddr: 0x100004604, symSize: 0x28 }
  - { offsetInCU: 0x16F64, offset: 0x16F64, size: 0x8, addend: 0x0, symName: __ZNSt3__122__compressed_pair_elemIRNS_9allocatorIP4UnitEELi1ELb0EE5__getB8ue170006Ev, symObjAddr: 0x258C, symBinAddr: 0x10000462C, symSize: 0x18 }
  - { offsetInCU: 0x16F89, offset: 0x16F89, size: 0x8, addend: 0x0, symName: __ZNSt3__117__compressed_pairIPP4UnitRNS_9allocatorIS2_EEE5firstB8ue170006Ev, symObjAddr: 0x25A4, symBinAddr: 0x100004644, symSize: 0x24 }
  - { offsetInCU: 0x16FAE, offset: 0x16FAE, size: 0x8, addend: 0x0, symName: __ZNKSt3__16vectorIP4UnitNS_9allocatorIS2_EEE17__annotate_deleteB8ue170006Ev, symObjAddr: 0x25C8, symBinAddr: 0x100004668, symSize: 0xB8 }
  - { offsetInCU: 0x16FD3, offset: 0x16FD3, size: 0x8, addend: 0x0, symName: __ZNSt3__116reverse_iteratorIPP4UnitEC1B8ue170006ES3_, symObjAddr: 0x26F8, symBinAddr: 0x100004798, symSize: 0x34 }
  - { offsetInCU: 0x1700A, offset: 0x1700A, size: 0x8, addend: 0x0, symName: __ZNKSt3__116reverse_iteratorIPP4UnitE4baseB8ue170006Ev, symObjAddr: 0x272C, symBinAddr: 0x1000047CC, symSize: 0x18 }
  - { offsetInCU: 0x1702F, offset: 0x1702F, size: 0x8, addend: 0x0, symName: __ZNKSt3__16vectorIP4UnitNS_9allocatorIS2_EEE14__annotate_newB8ue170006Em, symObjAddr: 0x2780, symBinAddr: 0x100004820, symSize: 0xAC }
  - { offsetInCU: 0x17086, offset: 0x17086, size: 0x8, addend: 0x0, symName: __ZNKSt3__111__move_loopINS_17_ClassicAlgPolicyEEclB8ue170006INS_16reverse_iteratorIPP4UnitEES8_S8_EENS_4pairIT_T1_EESA_T0_SB_, symObjAddr: 0x2B1C, symBinAddr: 0x100004BBC, symSize: 0xA0 }
  - { offsetInCU: 0x170F5, offset: 0x170F5, size: 0x8, addend: 0x0, symName: __ZNSt3__18_IterOpsINS_17_ClassicAlgPolicyEE11__iter_moveB8ue170006IRNS_16reverse_iteratorIPP4UnitEEEENS_9enable_ifIXsr12is_referenceIDTdeclsr3stdE7declvalIRT_EEEEE5valueEDTclsr3stdE4movedeclsr3stdE7declvalISC_EEEEE4typeEOSB_, symObjAddr: 0x2D50, symBinAddr: 0x100004DF0, symSize: 0x28 }
  - { offsetInCU: 0x17121, offset: 0x17121, size: 0x8, addend: 0x0, symName: __ZNKSt3__116reverse_iteratorIPP4UnitEdeB8ue170006Ev, symObjAddr: 0x2D78, symBinAddr: 0x100004E18, symSize: 0x28 }
  - { offsetInCU: 0x17154, offset: 0x17154, size: 0x8, addend: 0x0, symName: __ZNSt3__116reverse_iteratorIPP4UnitEppB8ue170006Ev, symObjAddr: 0x2DA0, symBinAddr: 0x100004E40, symSize: 0x20 }
  - { offsetInCU: 0x17179, offset: 0x17179, size: 0x8, addend: 0x0, symName: __ZNSt3__18_IterOpsINS_17_ClassicAlgPolicyEE25__validate_iter_referenceB8ue170006IRNS_16reverse_iteratorIPP4UnitEEEEvv, symObjAddr: 0x2DC0, symBinAddr: 0x100004E60, symSize: 0x4 }
  - { offsetInCU: 0x17197, offset: 0x17197, size: 0x8, addend: 0x0, symName: __ZNSt3__118__unwrap_iter_implINS_16reverse_iteratorIPP4UnitEELb0EE8__unwrapB8ue170006ES5_, symObjAddr: 0x2DC4, symBinAddr: 0x100004E64, symSize: 0x24 }
  - { offsetInCU: 0x171BF, offset: 0x171BF, size: 0x8, addend: 0x0, symName: __ZNSt3__14pairINS_16reverse_iteratorIPP4UnitEES5_EC1B8ue170006IS5_S5_LPv0EEEOT_OT0_, symObjAddr: 0x2DE8, symBinAddr: 0x100004E88, symSize: 0x3C }
  - { offsetInCU: 0x1721C, offset: 0x1721C, size: 0x8, addend: 0x0, symName: __ZNSt3__14pairINS_16reverse_iteratorIPP4UnitEES5_EC2B8ue170006IS5_S5_LPv0EEEOT_OT0_, symObjAddr: 0x2E24, symBinAddr: 0x100004EC4, symSize: 0x34 }
  - { offsetInCU: 0x17279, offset: 0x17279, size: 0x8, addend: 0x0, symName: __ZNSt3__118__unwrap_iter_implINS_16reverse_iteratorIPP4UnitEELb0EE8__rewrapB8ue170006ES5_S5_, symObjAddr: 0x2E58, symBinAddr: 0x100004EF8, symSize: 0x2C }
  - { offsetInCU: 0x172A7, offset: 0x172A7, size: 0x8, addend: 0x0, symName: __ZNSt3__116reverse_iteratorIPP4UnitEC2B8ue170006ES3_, symObjAddr: 0x2E84, symBinAddr: 0x100004F24, symSize: 0x28 }
  - { offsetInCU: 0x172DE, offset: 0x172DE, size: 0x8, addend: 0x0, symName: __ZNSt3__114__split_bufferIP4UnitRNS_9allocatorIS2_EEED2Ev, symObjAddr: 0x2EAC, symBinAddr: 0x100004F4C, symSize: 0x8C }
  - { offsetInCU: 0x17309, offset: 0x17309, size: 0x8, addend: 0x0, symName: __ZNSt3__114__split_bufferIP4UnitRNS_9allocatorIS2_EEE5clearB8ue170006Ev, symObjAddr: 0x2F38, symBinAddr: 0x100004FD8, symSize: 0x28 }
  - { offsetInCU: 0x1732E, offset: 0x1732E, size: 0x8, addend: 0x0, symName: __ZNSt3__116allocator_traitsINS_9allocatorIP4UnitEEE10deallocateB8ue170006ERS4_PS3_m, symObjAddr: 0x2F60, symBinAddr: 0x100005000, symSize: 0x34 }
  - { offsetInCU: 0x17370, offset: 0x17370, size: 0x8, addend: 0x0, symName: __ZNKSt3__114__split_bufferIP4UnitRNS_9allocatorIS2_EEE8capacityB8ue170006Ev, symObjAddr: 0x2F94, symBinAddr: 0x100005034, symSize: 0x40 }
  - { offsetInCU: 0x17395, offset: 0x17395, size: 0x8, addend: 0x0, symName: __ZNSt3__114__split_bufferIP4UnitRNS_9allocatorIS2_EEE17__destruct_at_endB8ue170006EPS2_, symObjAddr: 0x2FD4, symBinAddr: 0x100005074, symSize: 0x2C }
  - { offsetInCU: 0x173C7, offset: 0x173C7, size: 0x8, addend: 0x0, symName: __ZNSt3__114__split_bufferIP4UnitRNS_9allocatorIS2_EEE17__destruct_at_endB8ue170006EPS2_NS_17integral_constantIbLb0EEE, symObjAddr: 0x3000, symBinAddr: 0x1000050A0, symSize: 0x80 }
  - { offsetInCU: 0x17407, offset: 0x17407, size: 0x8, addend: 0x0, symName: __ZNSt3__19allocatorIP4UnitE10deallocateB8ue170006EPS2_m, symObjAddr: 0x3080, symBinAddr: 0x100005120, symSize: 0x40 }
  - { offsetInCU: 0x17448, offset: 0x17448, size: 0x8, addend: 0x0, symName: __ZNKSt3__114__split_bufferIP4UnitRNS_9allocatorIS2_EEE9__end_capB8ue170006Ev, symObjAddr: 0x313C, symBinAddr: 0x1000051DC, symSize: 0x28 }
  - { offsetInCU: 0x1746D, offset: 0x1746D, size: 0x8, addend: 0x0, symName: __ZNKSt3__117__compressed_pairIPP4UnitRNS_9allocatorIS2_EEE5firstB8ue170006Ev, symObjAddr: 0x3164, symBinAddr: 0x100005204, symSize: 0x24 }
  - { offsetInCU: 0x17492, offset: 0x17492, size: 0x8, addend: 0x0, symName: __ZNKSt3__16vectorIP4UnitNS_9allocatorIS2_EEE11__make_iterB8ue170006EPKS2_, symObjAddr: 0x3188, symBinAddr: 0x100005228, symSize: 0x30 }
  - { offsetInCU: 0x174C6, offset: 0x174C6, size: 0x8, addend: 0x0, symName: __ZNSt3__111__wrap_iterIPKP4UnitEC1B8ue170006ES4_, symObjAddr: 0x31B8, symBinAddr: 0x100005258, symSize: 0x34 }
  - { offsetInCU: 0x174FD, offset: 0x174FD, size: 0x8, addend: 0x0, symName: __ZNSt3__111__wrap_iterIPKP4UnitEC2B8ue170006ES4_, symObjAddr: 0x31EC, symBinAddr: 0x10000528C, symSize: 0x20 }
  - { offsetInCU: 0x17533, offset: 0x17533, size: 0x8, addend: 0x0, symName: __ZNSt3__16vectorINS0_I10BorderTypeNS_9allocatorIS1_EEEENS2_IS4_EEE8__appendEm, symObjAddr: 0x320C, symBinAddr: 0x1000052AC, symSize: 0x108 }
  - { offsetInCU: 0x1758E, offset: 0x1758E, size: 0x8, addend: 0x0, symName: __ZNSt3__16vectorINS0_I10BorderTypeNS_9allocatorIS1_EEEENS2_IS4_EEE17__destruct_at_endB8ue170006EPS4_, symObjAddr: 0x3314, symBinAddr: 0x1000053B4, symSize: 0x4C }
  - { offsetInCU: 0x175D1, offset: 0x175D1, size: 0x8, addend: 0x0, symName: __ZNSt3__16vectorINS0_I10BorderTypeNS_9allocatorIS1_EEEENS2_IS4_EEE9__end_capB8ue170006Ev, symObjAddr: 0x3360, symBinAddr: 0x100005400, symSize: 0x28 }
  - { offsetInCU: 0x175F5, offset: 0x175F5, size: 0x8, addend: 0x0, symName: __ZNSt3__16vectorINS0_I10BorderTypeNS_9allocatorIS1_EEEENS2_IS4_EEE18__construct_at_endEm, symObjAddr: 0x3388, symBinAddr: 0x100005428, symSize: 0xC8 }
  - { offsetInCU: 0x17667, offset: 0x17667, size: 0x8, addend: 0x0, symName: __ZNSt3__16vectorINS0_I10BorderTypeNS_9allocatorIS1_EEEENS2_IS4_EEE7__allocB8ue170006Ev, symObjAddr: 0x3450, symBinAddr: 0x1000054F0, symSize: 0x28 }
  - { offsetInCU: 0x1768B, offset: 0x1768B, size: 0x8, addend: 0x0, symName: __ZNKSt3__16vectorINS0_I10BorderTypeNS_9allocatorIS1_EEEENS2_IS4_EEE11__recommendB8ue170006Em, symObjAddr: 0x3478, symBinAddr: 0x100005518, symSize: 0xB4 }
  - { offsetInCU: 0x176DF, offset: 0x176DF, size: 0x8, addend: 0x0, symName: __ZNSt3__114__split_bufferINS_6vectorI10BorderTypeNS_9allocatorIS2_EEEERNS3_IS5_EEEC1EmmS7_, symObjAddr: 0x352C, symBinAddr: 0x1000055CC, symSize: 0x44 }
  - { offsetInCU: 0x17733, offset: 0x17733, size: 0x8, addend: 0x0, symName: __ZNSt3__114__split_bufferINS_6vectorI10BorderTypeNS_9allocatorIS2_EEEERNS3_IS5_EEE18__construct_at_endEm, symObjAddr: 0x3570, symBinAddr: 0x100005610, symSize: 0xB4 }
  - { offsetInCU: 0x17777, offset: 0x17777, size: 0x8, addend: 0x0, symName: __ZNSt3__114__split_bufferINS_6vectorI10BorderTypeNS_9allocatorIS2_EEEERNS3_IS5_EEED1Ev, symObjAddr: 0x3734, symBinAddr: 0x1000057D4, symSize: 0x2C }
  - { offsetInCU: 0x177A2, offset: 0x177A2, size: 0x8, addend: 0x0, symName: __ZNSt3__117__compressed_pairIPNS_6vectorI10BorderTypeNS_9allocatorIS2_EEEENS3_IS5_EEE5firstB8ue170006Ev, symObjAddr: 0x3760, symBinAddr: 0x100005800, symSize: 0x24 }
  - { offsetInCU: 0x177C7, offset: 0x177C7, size: 0x8, addend: 0x0, symName: __ZNSt3__122__compressed_pair_elemIPNS_6vectorI10BorderTypeNS_9allocatorIS2_EEEELi0ELb0EE5__getB8ue170006Ev, symObjAddr: 0x3784, symBinAddr: 0x100005824, symSize: 0x14 }
  - { offsetInCU: 0x17805, offset: 0x17805, size: 0x8, addend: 0x0, symName: __ZNSt3__16vectorINS0_I10BorderTypeNS_9allocatorIS1_EEEENS2_IS4_EEE21_ConstructTransactionC1B8ue170006ERS6_m, symObjAddr: 0x3798, symBinAddr: 0x100005838, symSize: 0x3C }
  - { offsetInCU: 0x1784C, offset: 0x1784C, size: 0x8, addend: 0x0, symName: __ZNSt3__116allocator_traitsINS_9allocatorINS_6vectorI10BorderTypeNS1_IS3_EEEEEEE9constructB8ue170006IS5_JEvEEvRS6_PT_DpOT0_, symObjAddr: 0x37D4, symBinAddr: 0x100005874, symSize: 0x2C }
  - { offsetInCU: 0x1788E, offset: 0x1788E, size: 0x8, addend: 0x0, symName: __ZNSt3__16vectorINS0_I10BorderTypeNS_9allocatorIS1_EEEENS2_IS4_EEE21_ConstructTransactionD1B8ue170006Ev, symObjAddr: 0x3814, symBinAddr: 0x1000058B4, symSize: 0x2C }
  - { offsetInCU: 0x178B7, offset: 0x178B7, size: 0x8, addend: 0x0, symName: __ZNSt3__16vectorINS0_I10BorderTypeNS_9allocatorIS1_EEEENS2_IS4_EEE21_ConstructTransactionC2B8ue170006ERS6_m, symObjAddr: 0x3840, symBinAddr: 0x1000058E0, symSize: 0x4C }
  - { offsetInCU: 0x178FE, offset: 0x178FE, size: 0x8, addend: 0x0, symName: __ZNSt3__19allocatorINS_6vectorI10BorderTypeNS0_IS2_EEEEE9constructB8ue170006IS4_JEEEvPT_DpOT0_, symObjAddr: 0x388C, symBinAddr: 0x10000592C, symSize: 0x28 }
  - { offsetInCU: 0x1793F, offset: 0x1793F, size: 0x8, addend: 0x0, symName: __ZNSt3__16vectorI10BorderTypeNS_9allocatorIS1_EEEC1B8ue170006Ev, symObjAddr: 0x38B4, symBinAddr: 0x100005954, symSize: 0x2C }
  - { offsetInCU: 0x17968, offset: 0x17968, size: 0x8, addend: 0x0, symName: __ZNSt3__16vectorI10BorderTypeNS_9allocatorIS1_EEEC2B8ue170006Ev, symObjAddr: 0x38E0, symBinAddr: 0x100005980, symSize: 0x4C }
  - { offsetInCU: 0x17996, offset: 0x17996, size: 0x8, addend: 0x0, symName: __ZNSt3__117__compressed_pairIP10BorderTypeNS_9allocatorIS1_EEEC1B8ue170006IDnNS_18__default_init_tagEEEOT_OT0_, symObjAddr: 0x392C, symBinAddr: 0x1000059CC, symSize: 0x3C }
  - { offsetInCU: 0x179ED, offset: 0x179ED, size: 0x8, addend: 0x0, symName: __ZNSt3__117__compressed_pairIP10BorderTypeNS_9allocatorIS1_EEEC2B8ue170006IDnNS_18__default_init_tagEEEOT_OT0_, symObjAddr: 0x3968, symBinAddr: 0x100005A08, symSize: 0x40 }
  - { offsetInCU: 0x17A44, offset: 0x17A44, size: 0x8, addend: 0x0, symName: __ZNSt3__122__compressed_pair_elemIP10BorderTypeLi0ELb0EEC2B8ue170006IDnvEEOT_, symObjAddr: 0x39A8, symBinAddr: 0x100005A48, symSize: 0x1C }
  - { offsetInCU: 0x17A85, offset: 0x17A85, size: 0x8, addend: 0x0, symName: __ZNSt3__122__compressed_pair_elemINS_9allocatorI10BorderTypeEELi1ELb1EEC2B8ue170006ENS_18__default_init_tagE, symObjAddr: 0x39C4, symBinAddr: 0x100005A64, symSize: 0x2C }
  - { offsetInCU: 0x17AB9, offset: 0x17AB9, size: 0x8, addend: 0x0, symName: __ZNSt3__19allocatorI10BorderTypeEC2B8ue170006Ev, symObjAddr: 0x39F0, symBinAddr: 0x100005A90, symSize: 0x2C }
  - { offsetInCU: 0x17AE2, offset: 0x17AE2, size: 0x8, addend: 0x0, symName: __ZNSt3__116__non_trivial_ifILb1ENS_9allocatorI10BorderTypeEEEC2B8ue170006Ev, symObjAddr: 0x3A1C, symBinAddr: 0x100005ABC, symSize: 0x14 }
  - { offsetInCU: 0x17B0B, offset: 0x17B0B, size: 0x8, addend: 0x0, symName: __ZNSt3__16vectorINS0_I10BorderTypeNS_9allocatorIS1_EEEENS2_IS4_EEE21_ConstructTransactionD2B8ue170006Ev, symObjAddr: 0x3A30, symBinAddr: 0x100005AD0, symSize: 0x20 }
  - { offsetInCU: 0x17B34, offset: 0x17B34, size: 0x8, addend: 0x0, symName: __ZNSt3__117__compressed_pairIPNS_6vectorI10BorderTypeNS_9allocatorIS2_EEEENS3_IS5_EEE6secondB8ue170006Ev, symObjAddr: 0x3A50, symBinAddr: 0x100005AF0, symSize: 0x24 }
  - { offsetInCU: 0x17B59, offset: 0x17B59, size: 0x8, addend: 0x0, symName: __ZNSt3__122__compressed_pair_elemINS_9allocatorINS_6vectorI10BorderTypeNS1_IS3_EEEEEELi1ELb1EE5__getB8ue170006Ev, symObjAddr: 0x3A74, symBinAddr: 0x100005B14, symSize: 0x14 }
  - { offsetInCU: 0x17B7D, offset: 0x17B7D, size: 0x8, addend: 0x0, symName: __ZNKSt3__16vectorINS0_I10BorderTypeNS_9allocatorIS1_EEEENS2_IS4_EEE8max_sizeEv, symObjAddr: 0x3A88, symBinAddr: 0x100005B28, symSize: 0x60 }
  - { offsetInCU: 0x17BA4, offset: 0x17BA4, size: 0x8, addend: 0x0, symName: __ZNKSt3__16vectorINS0_I10BorderTypeNS_9allocatorIS1_EEEENS2_IS4_EEE20__throw_length_errorB8ue170006Ev, symObjAddr: 0x3AE8, symBinAddr: 0x100005B88, symSize: 0x1C }
  - { offsetInCU: 0x17BC9, offset: 0x17BC9, size: 0x8, addend: 0x0, symName: __ZNKSt3__16vectorINS0_I10BorderTypeNS_9allocatorIS1_EEEENS2_IS4_EEE8capacityB8ue170006Ev, symObjAddr: 0x3B04, symBinAddr: 0x100005BA4, symSize: 0x40 }
  - { offsetInCU: 0x17BF8, offset: 0x17BF8, size: 0x8, addend: 0x0, symName: __ZNSt3__116allocator_traitsINS_9allocatorINS_6vectorI10BorderTypeNS1_IS3_EEEEEEE8max_sizeB8ue170006IS6_vEEmRKS6_, symObjAddr: 0x3B44, symBinAddr: 0x100005BE4, symSize: 0x24 }
  - { offsetInCU: 0x17C26, offset: 0x17C26, size: 0x8, addend: 0x0, symName: __ZNKSt3__16vectorINS0_I10BorderTypeNS_9allocatorIS1_EEEENS2_IS4_EEE7__allocB8ue170006Ev, symObjAddr: 0x3B68, symBinAddr: 0x100005C08, symSize: 0x28 }
  - { offsetInCU: 0x17C4B, offset: 0x17C4B, size: 0x8, addend: 0x0, symName: __ZNKSt3__19allocatorINS_6vectorI10BorderTypeNS0_IS2_EEEEE8max_sizeB8ue170006Ev, symObjAddr: 0x3B90, symBinAddr: 0x100005C30, symSize: 0x18 }
  - { offsetInCU: 0x17C70, offset: 0x17C70, size: 0x8, addend: 0x0, symName: __ZNKSt3__117__compressed_pairIPNS_6vectorI10BorderTypeNS_9allocatorIS2_EEEENS3_IS5_EEE6secondB8ue170006Ev, symObjAddr: 0x3BA8, symBinAddr: 0x100005C48, symSize: 0x24 }
  - { offsetInCU: 0x17C95, offset: 0x17C95, size: 0x8, addend: 0x0, symName: __ZNKSt3__122__compressed_pair_elemINS_9allocatorINS_6vectorI10BorderTypeNS1_IS3_EEEEEELi1ELb1EE5__getB8ue170006Ev, symObjAddr: 0x3BCC, symBinAddr: 0x100005C6C, symSize: 0x14 }
  - { offsetInCU: 0x17CBA, offset: 0x17CBA, size: 0x8, addend: 0x0, symName: __ZNKSt3__16vectorINS0_I10BorderTypeNS_9allocatorIS1_EEEENS2_IS4_EEE9__end_capB8ue170006Ev, symObjAddr: 0x3BE0, symBinAddr: 0x100005C80, symSize: 0x28 }
  - { offsetInCU: 0x17CDF, offset: 0x17CDF, size: 0x8, addend: 0x0, symName: __ZNKSt3__117__compressed_pairIPNS_6vectorI10BorderTypeNS_9allocatorIS2_EEEENS3_IS5_EEE5firstB8ue170006Ev, symObjAddr: 0x3C08, symBinAddr: 0x100005CA8, symSize: 0x24 }
  - { offsetInCU: 0x17D04, offset: 0x17D04, size: 0x8, addend: 0x0, symName: __ZNKSt3__122__compressed_pair_elemIPNS_6vectorI10BorderTypeNS_9allocatorIS2_EEEELi0ELb0EE5__getB8ue170006Ev, symObjAddr: 0x3C2C, symBinAddr: 0x100005CCC, symSize: 0x14 }
  - { offsetInCU: 0x17D29, offset: 0x17D29, size: 0x8, addend: 0x0, symName: __ZNSt3__114__split_bufferINS_6vectorI10BorderTypeNS_9allocatorIS2_EEEERNS3_IS5_EEEC2EmmS7_, symObjAddr: 0x3C40, symBinAddr: 0x100005CE0, symSize: 0xE0 }
  - { offsetInCU: 0x17D9C, offset: 0x17D9C, size: 0x8, addend: 0x0, symName: __ZNSt3__117__compressed_pairIPNS_6vectorI10BorderTypeNS_9allocatorIS2_EEEERNS3_IS5_EEEC1B8ue170006IDnS8_EEOT_OT0_, symObjAddr: 0x3D20, symBinAddr: 0x100005DC0, symSize: 0x3C }
  - { offsetInCU: 0x17DF3, offset: 0x17DF3, size: 0x8, addend: 0x0, symName: __ZNSt3__114__split_bufferINS_6vectorI10BorderTypeNS_9allocatorIS2_EEEERNS3_IS5_EEE7__allocB8ue170006Ev, symObjAddr: 0x3D9C, symBinAddr: 0x100005E3C, symSize: 0x28 }
  - { offsetInCU: 0x17E18, offset: 0x17E18, size: 0x8, addend: 0x0, symName: __ZNSt3__114__split_bufferINS_6vectorI10BorderTypeNS_9allocatorIS2_EEEERNS3_IS5_EEE9__end_capB8ue170006Ev, symObjAddr: 0x3DC4, symBinAddr: 0x100005E64, symSize: 0x28 }
  - { offsetInCU: 0x17E3D, offset: 0x17E3D, size: 0x8, addend: 0x0, symName: __ZNSt3__117__compressed_pairIPNS_6vectorI10BorderTypeNS_9allocatorIS2_EEEERNS3_IS5_EEEC2B8ue170006IDnS8_EEOT_OT0_, symObjAddr: 0x3DEC, symBinAddr: 0x100005E8C, symSize: 0x48 }
  - { offsetInCU: 0x17E94, offset: 0x17E94, size: 0x8, addend: 0x0, symName: __ZNSt3__122__compressed_pair_elemIPNS_6vectorI10BorderTypeNS_9allocatorIS2_EEEELi0ELb0EEC2B8ue170006IDnvEEOT_, symObjAddr: 0x3E34, symBinAddr: 0x100005ED4, symSize: 0x1C }
  - { offsetInCU: 0x17ED5, offset: 0x17ED5, size: 0x8, addend: 0x0, symName: __ZNSt3__122__compressed_pair_elemIRNS_9allocatorINS_6vectorI10BorderTypeNS1_IS3_EEEEEELi1ELb0EEC2B8ue170006IS7_vEEOT_, symObjAddr: 0x3E50, symBinAddr: 0x100005EF0, symSize: 0x20 }
  - { offsetInCU: 0x17F16, offset: 0x17F16, size: 0x8, addend: 0x0, symName: __ZNSt3__19allocatorINS_6vectorI10BorderTypeNS0_IS2_EEEEE8allocateB8ue170006Em, symObjAddr: 0x3E70, symBinAddr: 0x100005F10, symSize: 0x5C }
  - { offsetInCU: 0x17F49, offset: 0x17F49, size: 0x8, addend: 0x0, symName: __ZNSt3__117__compressed_pairIPNS_6vectorI10BorderTypeNS_9allocatorIS2_EEEERNS3_IS5_EEE6secondB8ue170006Ev, symObjAddr: 0x3ECC, symBinAddr: 0x100005F6C, symSize: 0x28 }
  - { offsetInCU: 0x17F6E, offset: 0x17F6E, size: 0x8, addend: 0x0, symName: __ZNSt3__122__compressed_pair_elemIRNS_9allocatorINS_6vectorI10BorderTypeNS1_IS3_EEEEEELi1ELb0EE5__getB8ue170006Ev, symObjAddr: 0x3EF4, symBinAddr: 0x100005F94, symSize: 0x18 }
  - { offsetInCU: 0x17F93, offset: 0x17F93, size: 0x8, addend: 0x0, symName: __ZNSt3__117__compressed_pairIPNS_6vectorI10BorderTypeNS_9allocatorIS2_EEEERNS3_IS5_EEE5firstB8ue170006Ev, symObjAddr: 0x3F0C, symBinAddr: 0x100005FAC, symSize: 0x24 }
  - { offsetInCU: 0x17FC2, offset: 0x17FC2, size: 0x8, addend: 0x0, symName: __ZNSt3__114__split_bufferINS_6vectorI10BorderTypeNS_9allocatorIS2_EEEERNS3_IS5_EEE21_ConstructTransactionC1B8ue170006EPPS5_m, symObjAddr: 0x3F30, symBinAddr: 0x100005FD0, symSize: 0x3C }
  - { offsetInCU: 0x18007, offset: 0x18007, size: 0x8, addend: 0x0, symName: __ZNSt3__114__split_bufferINS_6vectorI10BorderTypeNS_9allocatorIS2_EEEERNS3_IS5_EEE21_ConstructTransactionD1B8ue170006Ev, symObjAddr: 0x3F6C, symBinAddr: 0x10000600C, symSize: 0x2C }
  - { offsetInCU: 0x18030, offset: 0x18030, size: 0x8, addend: 0x0, symName: __ZNSt3__114__split_bufferINS_6vectorI10BorderTypeNS_9allocatorIS2_EEEERNS3_IS5_EEE21_ConstructTransactionC2B8ue170006EPPS5_m, symObjAddr: 0x3F98, symBinAddr: 0x100006038, symSize: 0x4C }
  - { offsetInCU: 0x18075, offset: 0x18075, size: 0x8, addend: 0x0, symName: __ZNSt3__114__split_bufferINS_6vectorI10BorderTypeNS_9allocatorIS2_EEEERNS3_IS5_EEE21_ConstructTransactionD2B8ue170006Ev, symObjAddr: 0x3FE4, symBinAddr: 0x100006084, symSize: 0x20 }
  - { offsetInCU: 0x1809E, offset: 0x1809E, size: 0x8, addend: 0x0, symName: __ZNKSt3__16vectorINS0_I10BorderTypeNS_9allocatorIS1_EEEENS2_IS4_EEE17__annotate_deleteB8ue170006Ev, symObjAddr: 0x4004, symBinAddr: 0x1000060A4, symSize: 0xD4 }
  - { offsetInCU: 0x180C3, offset: 0x180C3, size: 0x8, addend: 0x0, symName: __ZNSt3__116reverse_iteratorIPNS_6vectorI10BorderTypeNS_9allocatorIS2_EEEEEC1B8ue170006ES6_, symObjAddr: 0x4204, symBinAddr: 0x1000062A4, symSize: 0x34 }
  - { offsetInCU: 0x180FA, offset: 0x180FA, size: 0x8, addend: 0x0, symName: __ZNKSt3__116reverse_iteratorIPNS_6vectorI10BorderTypeNS_9allocatorIS2_EEEEE4baseB8ue170006Ev, symObjAddr: 0x4238, symBinAddr: 0x1000062D8, symSize: 0x18 }
  - { offsetInCU: 0x1811F, offset: 0x1811F, size: 0x8, addend: 0x0, symName: __ZNKSt3__16vectorINS0_I10BorderTypeNS_9allocatorIS1_EEEENS2_IS4_EEE14__annotate_newB8ue170006Em, symObjAddr: 0x428C, symBinAddr: 0x10000632C, symSize: 0xC8 }
  - { offsetInCU: 0x18153, offset: 0x18153, size: 0x8, addend: 0x0, symName: __ZNKSt3__16vectorINS0_I10BorderTypeNS_9allocatorIS1_EEEENS2_IS4_EEE31__annotate_contiguous_containerB8ue170006EPKvS8_S8_S8_, symObjAddr: 0x4354, symBinAddr: 0x1000063F4, symSize: 0x20 }
  - { offsetInCU: 0x181A4, offset: 0x181A4, size: 0x8, addend: 0x0, symName: __ZNKSt3__16vectorINS0_I10BorderTypeNS_9allocatorIS1_EEEENS2_IS4_EEE4dataB8ue170006Ev, symObjAddr: 0x4374, symBinAddr: 0x100006414, symSize: 0x28 }
  - { offsetInCU: 0x181C9, offset: 0x181C9, size: 0x8, addend: 0x0, symName: __ZNSt3__129_AllocatorDestroyRangeReverseINS_9allocatorINS_6vectorI10BorderTypeNS1_IS3_EEEEEENS_16reverse_iteratorIPS5_EEEC1B8ue170006ERS6_RS9_SC_, symObjAddr: 0x43E8, symBinAddr: 0x100006488, symSize: 0x44 }
  - { offsetInCU: 0x1821F, offset: 0x1821F, size: 0x8, addend: 0x0, symName: __ZNSt3__116allocator_traitsINS_9allocatorINS_6vectorI10BorderTypeNS1_IS3_EEEEEEE9constructB8ue170006IS5_JS5_EvEEvRS6_PT_DpOT0_, symObjAddr: 0x4474, symBinAddr: 0x100006514, symSize: 0x34 }
  - { offsetInCU: 0x18276, offset: 0x18276, size: 0x8, addend: 0x0, symName: __ZNKSt3__116reverse_iteratorIPNS_6vectorI10BorderTypeNS_9allocatorIS2_EEEEEdeB8ue170006Ev, symObjAddr: 0x44CC, symBinAddr: 0x10000656C, symSize: 0x28 }
  - { offsetInCU: 0x182A9, offset: 0x182A9, size: 0x8, addend: 0x0, symName: __ZNSt3__116reverse_iteratorIPNS_6vectorI10BorderTypeNS_9allocatorIS2_EEEEEppB8ue170006Ev, symObjAddr: 0x44F4, symBinAddr: 0x100006594, symSize: 0x20 }
  - { offsetInCU: 0x182CE, offset: 0x182CE, size: 0x8, addend: 0x0, symName: __ZNSt3__128__exception_guard_exceptionsINS_29_AllocatorDestroyRangeReverseINS_9allocatorINS_6vectorI10BorderTypeNS2_IS4_EEEEEENS_16reverse_iteratorIPS6_EEEEE10__completeB8ue170006Ev, symObjAddr: 0x4514, symBinAddr: 0x1000065B4, symSize: 0x1C }
  - { offsetInCU: 0x182F3, offset: 0x182F3, size: 0x8, addend: 0x0, symName: __ZNSt3__128__exception_guard_exceptionsINS_29_AllocatorDestroyRangeReverseINS_9allocatorINS_6vectorI10BorderTypeNS2_IS4_EEEEEENS_16reverse_iteratorIPS6_EEEEED1B8ue170006Ev, symObjAddr: 0x4530, symBinAddr: 0x1000065D0, symSize: 0x2C }
  - { offsetInCU: 0x1831C, offset: 0x1831C, size: 0x8, addend: 0x0, symName: __ZNSt3__128__exception_guard_exceptionsINS_29_AllocatorDestroyRangeReverseINS_9allocatorINS_6vectorI10BorderTypeNS2_IS4_EEEEEENS_16reverse_iteratorIPS6_EEEEEC1B8ue170006ESB_, symObjAddr: 0x455C, symBinAddr: 0x1000065FC, symSize: 0x34 }
  - { offsetInCU: 0x18354, offset: 0x18354, size: 0x8, addend: 0x0, symName: __ZNSt3__128__exception_guard_exceptionsINS_29_AllocatorDestroyRangeReverseINS_9allocatorINS_6vectorI10BorderTypeNS2_IS4_EEEEEENS_16reverse_iteratorIPS6_EEEEEC2B8ue170006ESB_, symObjAddr: 0x4590, symBinAddr: 0x100006630, symSize: 0x30 }
  - { offsetInCU: 0x1838C, offset: 0x1838C, size: 0x8, addend: 0x0, symName: __ZNSt3__129_AllocatorDestroyRangeReverseINS_9allocatorINS_6vectorI10BorderTypeNS1_IS3_EEEEEENS_16reverse_iteratorIPS5_EEEC2B8ue170006ERS6_RS9_SC_, symObjAddr: 0x45C0, symBinAddr: 0x100006660, symSize: 0x38 }
  - { offsetInCU: 0x183E2, offset: 0x183E2, size: 0x8, addend: 0x0, symName: __ZNSt3__19allocatorINS_6vectorI10BorderTypeNS0_IS2_EEEEE9constructB8ue170006IS4_JS4_EEEvPT_DpOT0_, symObjAddr: 0x45F8, symBinAddr: 0x100006698, symSize: 0x30 }
  - { offsetInCU: 0x18437, offset: 0x18437, size: 0x8, addend: 0x0, symName: __ZNSt3__16vectorI10BorderTypeNS_9allocatorIS1_EEEC1B8ue170006EOS4_, symObjAddr: 0x4628, symBinAddr: 0x1000066C8, symSize: 0x34 }
  - { offsetInCU: 0x18471, offset: 0x18471, size: 0x8, addend: 0x0, symName: __ZNSt3__16vectorI10BorderTypeNS_9allocatorIS1_EEEC2B8ue170006EOS4_, symObjAddr: 0x465C, symBinAddr: 0x1000066FC, symSize: 0xC4 }
  - { offsetInCU: 0x184AB, offset: 0x184AB, size: 0x8, addend: 0x0, symName: __ZNSt3__16vectorI10BorderTypeNS_9allocatorIS1_EEE7__allocB8ue170006Ev, symObjAddr: 0x4720, symBinAddr: 0x1000067C0, symSize: 0x28 }
  - { offsetInCU: 0x184D5, offset: 0x184D5, size: 0x8, addend: 0x0, symName: __ZNSt3__117__compressed_pairIP10BorderTypeNS_9allocatorIS1_EEEC1B8ue170006IDnS4_EEOT_OT0_, symObjAddr: 0x4748, symBinAddr: 0x1000067E8, symSize: 0x3C }
  - { offsetInCU: 0x1852C, offset: 0x1852C, size: 0x8, addend: 0x0, symName: __ZNSt3__16vectorI10BorderTypeNS_9allocatorIS1_EEE9__end_capB8ue170006Ev, symObjAddr: 0x4784, symBinAddr: 0x100006824, symSize: 0x28 }
  - { offsetInCU: 0x18551, offset: 0x18551, size: 0x8, addend: 0x0, symName: __ZNSt3__117__compressed_pairIP10BorderTypeNS_9allocatorIS1_EEE6secondB8ue170006Ev, symObjAddr: 0x47AC, symBinAddr: 0x10000684C, symSize: 0x24 }
  - { offsetInCU: 0x18576, offset: 0x18576, size: 0x8, addend: 0x0, symName: __ZNSt3__122__compressed_pair_elemINS_9allocatorI10BorderTypeEELi1ELb1EE5__getB8ue170006Ev, symObjAddr: 0x47D0, symBinAddr: 0x100006870, symSize: 0x14 }
  - { offsetInCU: 0x1859B, offset: 0x1859B, size: 0x8, addend: 0x0, symName: __ZNSt3__117__compressed_pairIP10BorderTypeNS_9allocatorIS1_EEEC2B8ue170006IDnS4_EEOT_OT0_, symObjAddr: 0x47E4, symBinAddr: 0x100006884, symSize: 0x44 }
  - { offsetInCU: 0x185F2, offset: 0x185F2, size: 0x8, addend: 0x0, symName: __ZNSt3__122__compressed_pair_elemINS_9allocatorI10BorderTypeEELi1ELb1EEC2B8ue170006IS3_vEEOT_, symObjAddr: 0x4828, symBinAddr: 0x1000068C8, symSize: 0x18 }
  - { offsetInCU: 0x18633, offset: 0x18633, size: 0x8, addend: 0x0, symName: __ZNSt3__117__compressed_pairIP10BorderTypeNS_9allocatorIS1_EEE5firstB8ue170006Ev, symObjAddr: 0x4840, symBinAddr: 0x1000068E0, symSize: 0x24 }
  - { offsetInCU: 0x18658, offset: 0x18658, size: 0x8, addend: 0x0, symName: __ZNSt3__122__compressed_pair_elemIP10BorderTypeLi0ELb0EE5__getB8ue170006Ev, symObjAddr: 0x4864, symBinAddr: 0x100006904, symSize: 0x14 }
  - { offsetInCU: 0x18682, offset: 0x18682, size: 0x8, addend: 0x0, symName: __ZNSt3__119__to_address_helperINS_16reverse_iteratorIPNS_6vectorI10BorderTypeNS_9allocatorIS3_EEEEEEvE6__callB8ue170006ERKS8_, symObjAddr: 0x4878, symBinAddr: 0x100006918, symSize: 0x38 }
  - { offsetInCU: 0x186A5, offset: 0x186A5, size: 0x8, addend: 0x0, symName: __ZNKSt3__116reverse_iteratorIPNS_6vectorI10BorderTypeNS_9allocatorIS2_EEEEEptB8ue170006Ev, symObjAddr: 0x48B0, symBinAddr: 0x100006950, symSize: 0x24 }
  - { offsetInCU: 0x186CA, offset: 0x186CA, size: 0x8, addend: 0x0, symName: __ZNSt3__128__exception_guard_exceptionsINS_29_AllocatorDestroyRangeReverseINS_9allocatorINS_6vectorI10BorderTypeNS2_IS4_EEEEEENS_16reverse_iteratorIPS6_EEEEED2B8ue170006Ev, symObjAddr: 0x48D4, symBinAddr: 0x100006974, symSize: 0x50 }
  - { offsetInCU: 0x186F3, offset: 0x186F3, size: 0x8, addend: 0x0, symName: __ZNKSt3__129_AllocatorDestroyRangeReverseINS_9allocatorINS_6vectorI10BorderTypeNS1_IS3_EEEEEENS_16reverse_iteratorIPS5_EEEclB8ue170006Ev, symObjAddr: 0x4924, symBinAddr: 0x1000069C4, symSize: 0xB4 }
  - { offsetInCU: 0x18719, offset: 0x18719, size: 0x8, addend: 0x0, symName: __ZNSt3__116reverse_iteratorINS0_IPNS_6vectorI10BorderTypeNS_9allocatorIS2_EEEEEEEC1B8ue170006ES7_, symObjAddr: 0x4A48, symBinAddr: 0x100006AE8, symSize: 0x3C }
  - { offsetInCU: 0x18750, offset: 0x18750, size: 0x8, addend: 0x0, symName: __ZNSt3__116allocator_traitsINS_9allocatorINS_6vectorI10BorderTypeNS1_IS3_EEEEEEE7destroyB8ue170006IS5_vEEvRS6_PT_, symObjAddr: 0x4AE4, symBinAddr: 0x100006B84, symSize: 0x2C }
  - { offsetInCU: 0x1878D, offset: 0x1878D, size: 0x8, addend: 0x0, symName: __ZNSt3__116reverse_iteratorINS0_IPNS_6vectorI10BorderTypeNS_9allocatorIS2_EEEEEEEppB8ue170006Ev, symObjAddr: 0x4B34, symBinAddr: 0x100006BD4, symSize: 0x30 }
  - { offsetInCU: 0x187B2, offset: 0x187B2, size: 0x8, addend: 0x0, symName: __ZNKSt3__116reverse_iteratorINS0_IPNS_6vectorI10BorderTypeNS_9allocatorIS2_EEEEEEE4baseB8ue170006Ev, symObjAddr: 0x4B64, symBinAddr: 0x100006C04, symSize: 0x24 }
  - { offsetInCU: 0x187D7, offset: 0x187D7, size: 0x8, addend: 0x0, symName: __ZNSt3__19allocatorINS_6vectorI10BorderTypeNS0_IS2_EEEEE7destroyB8ue170006EPS4_, symObjAddr: 0x4B88, symBinAddr: 0x100006C28, symSize: 0x28 }
  - { offsetInCU: 0x1880A, offset: 0x1880A, size: 0x8, addend: 0x0, symName: __ZNSt3__16vectorI10BorderTypeNS_9allocatorIS1_EEED1B8ue170006Ev, symObjAddr: 0x4BB0, symBinAddr: 0x100006C50, symSize: 0x2C }
  - { offsetInCU: 0x18833, offset: 0x18833, size: 0x8, addend: 0x0, symName: __ZNSt3__16vectorI10BorderTypeNS_9allocatorIS1_EEED2B8ue170006Ev, symObjAddr: 0x4BDC, symBinAddr: 0x100006C7C, symSize: 0x44 }
  - { offsetInCU: 0x1885C, offset: 0x1885C, size: 0x8, addend: 0x0, symName: __ZNSt3__16vectorI10BorderTypeNS_9allocatorIS1_EEE16__destroy_vectorC1B8ue170006ERS4_, symObjAddr: 0x4C20, symBinAddr: 0x100006CC0, symSize: 0x34 }
  - { offsetInCU: 0x18894, offset: 0x18894, size: 0x8, addend: 0x0, symName: __ZNSt3__16vectorI10BorderTypeNS_9allocatorIS1_EEE16__destroy_vectorclB8ue170006Ev, symObjAddr: 0x4C54, symBinAddr: 0x100006CF4, symSize: 0x90 }
  - { offsetInCU: 0x188B9, offset: 0x188B9, size: 0x8, addend: 0x0, symName: __ZNSt3__16vectorI10BorderTypeNS_9allocatorIS1_EEE16__destroy_vectorC2B8ue170006ERS4_, symObjAddr: 0x4CE4, symBinAddr: 0x100006D84, symSize: 0x20 }
  - { offsetInCU: 0x188F1, offset: 0x188F1, size: 0x8, addend: 0x0, symName: __ZNSt3__16vectorI10BorderTypeNS_9allocatorIS1_EEE7__clearB8ue170006Ev, symObjAddr: 0x4D04, symBinAddr: 0x100006DA4, symSize: 0x28 }
  - { offsetInCU: 0x18916, offset: 0x18916, size: 0x8, addend: 0x0, symName: __ZNKSt3__16vectorI10BorderTypeNS_9allocatorIS1_EEE17__annotate_deleteB8ue170006Ev, symObjAddr: 0x4D2C, symBinAddr: 0x100006DCC, symSize: 0xB8 }
  - { offsetInCU: 0x1893B, offset: 0x1893B, size: 0x8, addend: 0x0, symName: __ZNSt3__116allocator_traitsINS_9allocatorI10BorderTypeEEE10deallocateB8ue170006ERS3_PS2_m, symObjAddr: 0x4DE4, symBinAddr: 0x100006E84, symSize: 0x34 }
  - { offsetInCU: 0x1897D, offset: 0x1897D, size: 0x8, addend: 0x0, symName: __ZNKSt3__16vectorI10BorderTypeNS_9allocatorIS1_EEE8capacityB8ue170006Ev, symObjAddr: 0x4E18, symBinAddr: 0x100006EB8, symSize: 0x40 }
  - { offsetInCU: 0x189A2, offset: 0x189A2, size: 0x8, addend: 0x0, symName: __ZNSt3__16vectorI10BorderTypeNS_9allocatorIS1_EEE22__base_destruct_at_endB8ue170006EPS1_, symObjAddr: 0x4E58, symBinAddr: 0x100006EF8, symSize: 0x8C }
  - { offsetInCU: 0x189E5, offset: 0x189E5, size: 0x8, addend: 0x0, symName: __ZNSt3__116allocator_traitsINS_9allocatorI10BorderTypeEEE7destroyB8ue170006IS2_vEEvRS3_PT_, symObjAddr: 0x4EE4, symBinAddr: 0x100006F84, symSize: 0x2C }
  - { offsetInCU: 0x18A22, offset: 0x18A22, size: 0x8, addend: 0x0, symName: __ZNSt3__19allocatorI10BorderTypeE7destroyB8ue170006EPS1_, symObjAddr: 0x4F24, symBinAddr: 0x100006FC4, symSize: 0x14 }
  - { offsetInCU: 0x18A55, offset: 0x18A55, size: 0x8, addend: 0x0, symName: __ZNKSt3__16vectorI10BorderTypeNS_9allocatorIS1_EEE31__annotate_contiguous_containerB8ue170006EPKvS6_S6_S6_, symObjAddr: 0x4F38, symBinAddr: 0x100006FD8, symSize: 0x20 }
  - { offsetInCU: 0x18AA6, offset: 0x18AA6, size: 0x8, addend: 0x0, symName: __ZNKSt3__16vectorI10BorderTypeNS_9allocatorIS1_EEE4dataB8ue170006Ev, symObjAddr: 0x4F58, symBinAddr: 0x100006FF8, symSize: 0x28 }
  - { offsetInCU: 0x18ACB, offset: 0x18ACB, size: 0x8, addend: 0x0, symName: __ZNKSt3__16vectorI10BorderTypeNS_9allocatorIS1_EEE4sizeB8ue170006Ev, symObjAddr: 0x4F80, symBinAddr: 0x100007020, symSize: 0x28 }
  - { offsetInCU: 0x18AF0, offset: 0x18AF0, size: 0x8, addend: 0x0, symName: __ZNSt3__19allocatorI10BorderTypeE10deallocateB8ue170006EPS1_m, symObjAddr: 0x4FA8, symBinAddr: 0x100007048, symSize: 0x40 }
  - { offsetInCU: 0x18B31, offset: 0x18B31, size: 0x8, addend: 0x0, symName: __ZNKSt3__16vectorI10BorderTypeNS_9allocatorIS1_EEE9__end_capB8ue170006Ev, symObjAddr: 0x4FE8, symBinAddr: 0x100007088, symSize: 0x28 }
  - { offsetInCU: 0x18B56, offset: 0x18B56, size: 0x8, addend: 0x0, symName: __ZNKSt3__117__compressed_pairIP10BorderTypeNS_9allocatorIS1_EEE5firstB8ue170006Ev, symObjAddr: 0x5010, symBinAddr: 0x1000070B0, symSize: 0x24 }
  - { offsetInCU: 0x18B7B, offset: 0x18B7B, size: 0x8, addend: 0x0, symName: __ZNKSt3__122__compressed_pair_elemIP10BorderTypeLi0ELb0EE5__getB8ue170006Ev, symObjAddr: 0x5034, symBinAddr: 0x1000070D4, symSize: 0x14 }
  - { offsetInCU: 0x18BA5, offset: 0x18BA5, size: 0x8, addend: 0x0, symName: __ZNSt3__119__to_address_helperINS_16reverse_iteratorINS1_IPNS_6vectorI10BorderTypeNS_9allocatorIS3_EEEEEEEEvE6__callB8ue170006ERKS9_, symObjAddr: 0x5048, symBinAddr: 0x1000070E8, symSize: 0x38 }
  - { offsetInCU: 0x18BC8, offset: 0x18BC8, size: 0x8, addend: 0x0, symName: __ZNKSt3__116reverse_iteratorINS0_IPNS_6vectorI10BorderTypeNS_9allocatorIS2_EEEEEEEptB8ue170006Ev, symObjAddr: 0x5080, symBinAddr: 0x100007120, symSize: 0x24 }
  - { offsetInCU: 0x18BED, offset: 0x18BED, size: 0x8, addend: 0x0, symName: __ZNKSt3__116reverse_iteratorINS0_IPNS_6vectorI10BorderTypeNS_9allocatorIS2_EEEEEEEdeB8ue170006Ev, symObjAddr: 0x50A4, symBinAddr: 0x100007144, symSize: 0x34 }
  - { offsetInCU: 0x18C20, offset: 0x18C20, size: 0x8, addend: 0x0, symName: __ZNSt3__116reverse_iteratorIPNS_6vectorI10BorderTypeNS_9allocatorIS2_EEEEEmmB8ue170006Ev, symObjAddr: 0x50D8, symBinAddr: 0x100007178, symSize: 0x20 }
  - { offsetInCU: 0x18C45, offset: 0x18C45, size: 0x8, addend: 0x0, symName: __ZNSt3__116reverse_iteratorINS0_IPNS_6vectorI10BorderTypeNS_9allocatorIS2_EEEEEEEC2B8ue170006ES7_, symObjAddr: 0x50F8, symBinAddr: 0x100007198, symSize: 0x2C }
  - { offsetInCU: 0x18C7C, offset: 0x18C7C, size: 0x8, addend: 0x0, symName: __ZNSt3__116reverse_iteratorIPNS_6vectorI10BorderTypeNS_9allocatorIS2_EEEEEC2B8ue170006ES6_, symObjAddr: 0x5124, symBinAddr: 0x1000071C4, symSize: 0x28 }
  - { offsetInCU: 0x18CB3, offset: 0x18CB3, size: 0x8, addend: 0x0, symName: __ZNSt3__114__split_bufferINS_6vectorI10BorderTypeNS_9allocatorIS2_EEEERNS3_IS5_EEED2Ev, symObjAddr: 0x514C, symBinAddr: 0x1000071EC, symSize: 0x8C }
  - { offsetInCU: 0x18CDE, offset: 0x18CDE, size: 0x8, addend: 0x0, symName: __ZNSt3__114__split_bufferINS_6vectorI10BorderTypeNS_9allocatorIS2_EEEERNS3_IS5_EEE5clearB8ue170006Ev, symObjAddr: 0x51D8, symBinAddr: 0x100007278, symSize: 0x28 }
  - { offsetInCU: 0x18D03, offset: 0x18D03, size: 0x8, addend: 0x0, symName: __ZNSt3__116allocator_traitsINS_9allocatorINS_6vectorI10BorderTypeNS1_IS3_EEEEEEE10deallocateB8ue170006ERS6_PS5_m, symObjAddr: 0x5200, symBinAddr: 0x1000072A0, symSize: 0x34 }
  - { offsetInCU: 0x18D45, offset: 0x18D45, size: 0x8, addend: 0x0, symName: __ZNKSt3__114__split_bufferINS_6vectorI10BorderTypeNS_9allocatorIS2_EEEERNS3_IS5_EEE8capacityB8ue170006Ev, symObjAddr: 0x5234, symBinAddr: 0x1000072D4, symSize: 0x40 }
  - { offsetInCU: 0x18D6A, offset: 0x18D6A, size: 0x8, addend: 0x0, symName: __ZNSt3__114__split_bufferINS_6vectorI10BorderTypeNS_9allocatorIS2_EEEERNS3_IS5_EEE17__destruct_at_endB8ue170006EPS5_, symObjAddr: 0x5274, symBinAddr: 0x100007314, symSize: 0x2C }
  - { offsetInCU: 0x18D9C, offset: 0x18D9C, size: 0x8, addend: 0x0, symName: __ZNSt3__114__split_bufferINS_6vectorI10BorderTypeNS_9allocatorIS2_EEEERNS3_IS5_EEE17__destruct_at_endB8ue170006EPS5_NS_17integral_constantIbLb0EEE, symObjAddr: 0x52A0, symBinAddr: 0x100007340, symSize: 0x80 }
  - { offsetInCU: 0x18DDC, offset: 0x18DDC, size: 0x8, addend: 0x0, symName: __ZNSt3__19allocatorINS_6vectorI10BorderTypeNS0_IS2_EEEEE10deallocateB8ue170006EPS4_m, symObjAddr: 0x5320, symBinAddr: 0x1000073C0, symSize: 0x44 }
  - { offsetInCU: 0x18E1D, offset: 0x18E1D, size: 0x8, addend: 0x0, symName: __ZNKSt3__114__split_bufferINS_6vectorI10BorderTypeNS_9allocatorIS2_EEEERNS3_IS5_EEE9__end_capB8ue170006Ev, symObjAddr: 0x5364, symBinAddr: 0x100007404, symSize: 0x28 }
  - { offsetInCU: 0x18E42, offset: 0x18E42, size: 0x8, addend: 0x0, symName: __ZNKSt3__117__compressed_pairIPNS_6vectorI10BorderTypeNS_9allocatorIS2_EEEERNS3_IS5_EEE5firstB8ue170006Ev, symObjAddr: 0x538C, symBinAddr: 0x10000742C, symSize: 0x24 }
  - { offsetInCU: 0x18E67, offset: 0x18E67, size: 0x8, addend: 0x0, symName: __ZNSt3__16vectorINS0_I10BorderTypeNS_9allocatorIS1_EEEENS2_IS4_EEE22__base_destruct_at_endB8ue170006EPS4_, symObjAddr: 0x53B0, symBinAddr: 0x100007450, symSize: 0x8C }
  - { offsetInCU: 0x18EAA, offset: 0x18EAA, size: 0x8, addend: 0x0, symName: __ZNKSt3__16vectorINS0_I10BorderTypeNS_9allocatorIS1_EEEENS2_IS4_EEE17__annotate_shrinkB8ue170006Em, symObjAddr: 0x543C, symBinAddr: 0x1000074DC, symSize: 0xD0 }
  - { offsetInCU: 0x18EDE, offset: 0x18EDE, size: 0x8, addend: 0x0, symName: __ZNKSt3__16vectorIP4CityNS_9allocatorIS2_EEE4sizeB8ue170006Ev, symObjAddr: 0x550C, symBinAddr: 0x1000075AC, symSize: 0x28 }
  - { offsetInCU: 0x18F02, offset: 0x18F02, size: 0x8, addend: 0x0, symName: __ZNSt3__16vectorIP4CityNS_9allocatorIS2_EEE8__appendEm, symObjAddr: 0x5534, symBinAddr: 0x1000075D4, symSize: 0x108 }
  - { offsetInCU: 0x18F5D, offset: 0x18F5D, size: 0x8, addend: 0x0, symName: __ZNSt3__16vectorIP4CityNS_9allocatorIS2_EEE17__destruct_at_endB8ue170006EPS2_, symObjAddr: 0x563C, symBinAddr: 0x1000076DC, symSize: 0x4C }
  - { offsetInCU: 0x18FA0, offset: 0x18FA0, size: 0x8, addend: 0x0, symName: __ZNSt3__16vectorIP4CityNS_9allocatorIS2_EEE9__end_capB8ue170006Ev, symObjAddr: 0x5688, symBinAddr: 0x100007728, symSize: 0x28 }
  - { offsetInCU: 0x18FC4, offset: 0x18FC4, size: 0x8, addend: 0x0, symName: __ZNSt3__16vectorIP4CityNS_9allocatorIS2_EEE18__construct_at_endEm, symObjAddr: 0x56B0, symBinAddr: 0x100007750, symSize: 0xC8 }
  - { offsetInCU: 0x19036, offset: 0x19036, size: 0x8, addend: 0x0, symName: __ZNSt3__16vectorIP4CityNS_9allocatorIS2_EEE7__allocB8ue170006Ev, symObjAddr: 0x5778, symBinAddr: 0x100007818, symSize: 0x28 }
  - { offsetInCU: 0x1905A, offset: 0x1905A, size: 0x8, addend: 0x0, symName: __ZNKSt3__16vectorIP4CityNS_9allocatorIS2_EEE11__recommendB8ue170006Em, symObjAddr: 0x57A0, symBinAddr: 0x100007840, symSize: 0xB4 }
  - { offsetInCU: 0x190AE, offset: 0x190AE, size: 0x8, addend: 0x0, symName: __ZNSt3__114__split_bufferIP4CityRNS_9allocatorIS2_EEEC1EmmS5_, symObjAddr: 0x5854, symBinAddr: 0x1000078F4, symSize: 0x44 }
  - { offsetInCU: 0x19102, offset: 0x19102, size: 0x8, addend: 0x0, symName: __ZNSt3__114__split_bufferIP4CityRNS_9allocatorIS2_EEE18__construct_at_endEm, symObjAddr: 0x5898, symBinAddr: 0x100007938, symSize: 0xB4 }
  - { offsetInCU: 0x19146, offset: 0x19146, size: 0x8, addend: 0x0, symName: __ZNSt3__114__split_bufferIP4CityRNS_9allocatorIS2_EEED1Ev, symObjAddr: 0x5A5C, symBinAddr: 0x100007AFC, symSize: 0x2C }
  - { offsetInCU: 0x19171, offset: 0x19171, size: 0x8, addend: 0x0, symName: __ZNSt3__117__compressed_pairIPP4CityNS_9allocatorIS2_EEE5firstB8ue170006Ev, symObjAddr: 0x5A88, symBinAddr: 0x100007B28, symSize: 0x24 }
  - { offsetInCU: 0x19196, offset: 0x19196, size: 0x8, addend: 0x0, symName: __ZNSt3__122__compressed_pair_elemIPP4CityLi0ELb0EE5__getB8ue170006Ev, symObjAddr: 0x5AAC, symBinAddr: 0x100007B4C, symSize: 0x14 }
  - { offsetInCU: 0x191D4, offset: 0x191D4, size: 0x8, addend: 0x0, symName: __ZNSt3__16vectorIP4CityNS_9allocatorIS2_EEE21_ConstructTransactionC1B8ue170006ERS5_m, symObjAddr: 0x5AC0, symBinAddr: 0x100007B60, symSize: 0x3C }
  - { offsetInCU: 0x1921B, offset: 0x1921B, size: 0x8, addend: 0x0, symName: __ZNSt3__116allocator_traitsINS_9allocatorIP4CityEEE9constructB8ue170006IS3_JEvEEvRS4_PT_DpOT0_, symObjAddr: 0x5AFC, symBinAddr: 0x100007B9C, symSize: 0x2C }
  - { offsetInCU: 0x1925D, offset: 0x1925D, size: 0x8, addend: 0x0, symName: __ZNSt3__16vectorIP4CityNS_9allocatorIS2_EEE21_ConstructTransactionD1B8ue170006Ev, symObjAddr: 0x5B3C, symBinAddr: 0x100007BDC, symSize: 0x2C }
  - { offsetInCU: 0x19286, offset: 0x19286, size: 0x8, addend: 0x0, symName: __ZNSt3__16vectorIP4CityNS_9allocatorIS2_EEE21_ConstructTransactionC2B8ue170006ERS5_m, symObjAddr: 0x5B68, symBinAddr: 0x100007C08, symSize: 0x44 }
  - { offsetInCU: 0x192CD, offset: 0x192CD, size: 0x8, addend: 0x0, symName: __ZNSt3__19allocatorIP4CityE9constructB8ue170006IS2_JEEEvPT_DpOT0_, symObjAddr: 0x5BAC, symBinAddr: 0x100007C4C, symSize: 0x1C }
  - { offsetInCU: 0x1930E, offset: 0x1930E, size: 0x8, addend: 0x0, symName: __ZNSt3__16vectorIP4CityNS_9allocatorIS2_EEE21_ConstructTransactionD2B8ue170006Ev, symObjAddr: 0x5BC8, symBinAddr: 0x100007C68, symSize: 0x20 }
  - { offsetInCU: 0x19337, offset: 0x19337, size: 0x8, addend: 0x0, symName: __ZNSt3__117__compressed_pairIPP4CityNS_9allocatorIS2_EEE6secondB8ue170006Ev, symObjAddr: 0x5BE8, symBinAddr: 0x100007C88, symSize: 0x24 }
  - { offsetInCU: 0x1935C, offset: 0x1935C, size: 0x8, addend: 0x0, symName: __ZNSt3__122__compressed_pair_elemINS_9allocatorIP4CityEELi1ELb1EE5__getB8ue170006Ev, symObjAddr: 0x5C0C, symBinAddr: 0x100007CAC, symSize: 0x14 }
  - { offsetInCU: 0x19380, offset: 0x19380, size: 0x8, addend: 0x0, symName: __ZNKSt3__16vectorIP4CityNS_9allocatorIS2_EEE8max_sizeEv, symObjAddr: 0x5C20, symBinAddr: 0x100007CC0, symSize: 0x60 }
  - { offsetInCU: 0x193A7, offset: 0x193A7, size: 0x8, addend: 0x0, symName: __ZNKSt3__16vectorIP4CityNS_9allocatorIS2_EEE20__throw_length_errorB8ue170006Ev, symObjAddr: 0x5C80, symBinAddr: 0x100007D20, symSize: 0x1C }
  - { offsetInCU: 0x193CC, offset: 0x193CC, size: 0x8, addend: 0x0, symName: __ZNKSt3__16vectorIP4CityNS_9allocatorIS2_EEE8capacityB8ue170006Ev, symObjAddr: 0x5C9C, symBinAddr: 0x100007D3C, symSize: 0x40 }
  - { offsetInCU: 0x193FB, offset: 0x193FB, size: 0x8, addend: 0x0, symName: __ZNSt3__116allocator_traitsINS_9allocatorIP4CityEEE8max_sizeB8ue170006IS4_vEEmRKS4_, symObjAddr: 0x5CDC, symBinAddr: 0x100007D7C, symSize: 0x24 }
  - { offsetInCU: 0x19429, offset: 0x19429, size: 0x8, addend: 0x0, symName: __ZNKSt3__16vectorIP4CityNS_9allocatorIS2_EEE7__allocB8ue170006Ev, symObjAddr: 0x5D00, symBinAddr: 0x100007DA0, symSize: 0x28 }
  - { offsetInCU: 0x1944E, offset: 0x1944E, size: 0x8, addend: 0x0, symName: __ZNKSt3__19allocatorIP4CityE8max_sizeB8ue170006Ev, symObjAddr: 0x5D28, symBinAddr: 0x100007DC8, symSize: 0x14 }
  - { offsetInCU: 0x19473, offset: 0x19473, size: 0x8, addend: 0x0, symName: __ZNKSt3__117__compressed_pairIPP4CityNS_9allocatorIS2_EEE6secondB8ue170006Ev, symObjAddr: 0x5D3C, symBinAddr: 0x100007DDC, symSize: 0x24 }
  - { offsetInCU: 0x19498, offset: 0x19498, size: 0x8, addend: 0x0, symName: __ZNKSt3__122__compressed_pair_elemINS_9allocatorIP4CityEELi1ELb1EE5__getB8ue170006Ev, symObjAddr: 0x5D60, symBinAddr: 0x100007E00, symSize: 0x14 }
  - { offsetInCU: 0x194BD, offset: 0x194BD, size: 0x8, addend: 0x0, symName: __ZNKSt3__16vectorIP4CityNS_9allocatorIS2_EEE9__end_capB8ue170006Ev, symObjAddr: 0x5D74, symBinAddr: 0x100007E14, symSize: 0x28 }
  - { offsetInCU: 0x194E2, offset: 0x194E2, size: 0x8, addend: 0x0, symName: __ZNKSt3__117__compressed_pairIPP4CityNS_9allocatorIS2_EEE5firstB8ue170006Ev, symObjAddr: 0x5D9C, symBinAddr: 0x100007E3C, symSize: 0x24 }
  - { offsetInCU: 0x19507, offset: 0x19507, size: 0x8, addend: 0x0, symName: __ZNKSt3__122__compressed_pair_elemIPP4CityLi0ELb0EE5__getB8ue170006Ev, symObjAddr: 0x5DC0, symBinAddr: 0x100007E60, symSize: 0x14 }
  - { offsetInCU: 0x1952C, offset: 0x1952C, size: 0x8, addend: 0x0, symName: __ZNSt3__114__split_bufferIP4CityRNS_9allocatorIS2_EEEC2EmmS5_, symObjAddr: 0x5DD4, symBinAddr: 0x100007E74, symSize: 0xD4 }
  - { offsetInCU: 0x1959F, offset: 0x1959F, size: 0x8, addend: 0x0, symName: __ZNSt3__117__compressed_pairIPP4CityRNS_9allocatorIS2_EEEC1B8ue170006IDnS6_EEOT_OT0_, symObjAddr: 0x5EA8, symBinAddr: 0x100007F48, symSize: 0x3C }
  - { offsetInCU: 0x195F6, offset: 0x195F6, size: 0x8, addend: 0x0, symName: __ZNSt3__114__split_bufferIP4CityRNS_9allocatorIS2_EEE7__allocB8ue170006Ev, symObjAddr: 0x5F24, symBinAddr: 0x100007FC4, symSize: 0x28 }
  - { offsetInCU: 0x1961B, offset: 0x1961B, size: 0x8, addend: 0x0, symName: __ZNSt3__114__split_bufferIP4CityRNS_9allocatorIS2_EEE9__end_capB8ue170006Ev, symObjAddr: 0x5F4C, symBinAddr: 0x100007FEC, symSize: 0x28 }
  - { offsetInCU: 0x19640, offset: 0x19640, size: 0x8, addend: 0x0, symName: __ZNSt3__117__compressed_pairIPP4CityRNS_9allocatorIS2_EEEC2B8ue170006IDnS6_EEOT_OT0_, symObjAddr: 0x5F74, symBinAddr: 0x100008014, symSize: 0x48 }
  - { offsetInCU: 0x19697, offset: 0x19697, size: 0x8, addend: 0x0, symName: __ZNSt3__122__compressed_pair_elemIPP4CityLi0ELb0EEC2B8ue170006IDnvEEOT_, symObjAddr: 0x5FBC, symBinAddr: 0x10000805C, symSize: 0x1C }
  - { offsetInCU: 0x196D8, offset: 0x196D8, size: 0x8, addend: 0x0, symName: __ZNSt3__122__compressed_pair_elemIRNS_9allocatorIP4CityEELi1ELb0EEC2B8ue170006IS5_vEEOT_, symObjAddr: 0x5FD8, symBinAddr: 0x100008078, symSize: 0x20 }
  - { offsetInCU: 0x19719, offset: 0x19719, size: 0x8, addend: 0x0, symName: __ZNSt3__19allocatorIP4CityE8allocateB8ue170006Em, symObjAddr: 0x5FF8, symBinAddr: 0x100008098, symSize: 0x58 }
  - { offsetInCU: 0x1974C, offset: 0x1974C, size: 0x8, addend: 0x0, symName: __ZNSt3__117__compressed_pairIPP4CityRNS_9allocatorIS2_EEE6secondB8ue170006Ev, symObjAddr: 0x6050, symBinAddr: 0x1000080F0, symSize: 0x28 }
  - { offsetInCU: 0x19771, offset: 0x19771, size: 0x8, addend: 0x0, symName: __ZNSt3__122__compressed_pair_elemIRNS_9allocatorIP4CityEELi1ELb0EE5__getB8ue170006Ev, symObjAddr: 0x6078, symBinAddr: 0x100008118, symSize: 0x18 }
  - { offsetInCU: 0x19796, offset: 0x19796, size: 0x8, addend: 0x0, symName: __ZNSt3__117__compressed_pairIPP4CityRNS_9allocatorIS2_EEE5firstB8ue170006Ev, symObjAddr: 0x6090, symBinAddr: 0x100008130, symSize: 0x24 }
  - { offsetInCU: 0x197C5, offset: 0x197C5, size: 0x8, addend: 0x0, symName: __ZNSt3__114__split_bufferIP4CityRNS_9allocatorIS2_EEE21_ConstructTransactionC1B8ue170006EPPS2_m, symObjAddr: 0x60B4, symBinAddr: 0x100008154, symSize: 0x3C }
  - { offsetInCU: 0x1980A, offset: 0x1980A, size: 0x8, addend: 0x0, symName: __ZNSt3__114__split_bufferIP4CityRNS_9allocatorIS2_EEE21_ConstructTransactionD1B8ue170006Ev, symObjAddr: 0x60F0, symBinAddr: 0x100008190, symSize: 0x2C }
  - { offsetInCU: 0x19833, offset: 0x19833, size: 0x8, addend: 0x0, symName: __ZNSt3__114__split_bufferIP4CityRNS_9allocatorIS2_EEE21_ConstructTransactionC2B8ue170006EPPS2_m, symObjAddr: 0x611C, symBinAddr: 0x1000081BC, symSize: 0x44 }
  - { offsetInCU: 0x19878, offset: 0x19878, size: 0x8, addend: 0x0, symName: __ZNSt3__114__split_bufferIP4CityRNS_9allocatorIS2_EEE21_ConstructTransactionD2B8ue170006Ev, symObjAddr: 0x6160, symBinAddr: 0x100008200, symSize: 0x20 }
  - { offsetInCU: 0x198A1, offset: 0x198A1, size: 0x8, addend: 0x0, symName: __ZNKSt3__16vectorIP4CityNS_9allocatorIS2_EEE17__annotate_deleteB8ue170006Ev, symObjAddr: 0x6180, symBinAddr: 0x100008220, symSize: 0xB8 }
  - { offsetInCU: 0x198C6, offset: 0x198C6, size: 0x8, addend: 0x0, symName: __ZNSt3__116reverse_iteratorIPP4CityEC1B8ue170006ES3_, symObjAddr: 0x62B0, symBinAddr: 0x100008350, symSize: 0x34 }
  - { offsetInCU: 0x198FD, offset: 0x198FD, size: 0x8, addend: 0x0, symName: __ZNKSt3__116reverse_iteratorIPP4CityE4baseB8ue170006Ev, symObjAddr: 0x62E4, symBinAddr: 0x100008384, symSize: 0x18 }
  - { offsetInCU: 0x19922, offset: 0x19922, size: 0x8, addend: 0x0, symName: __ZNKSt3__16vectorIP4CityNS_9allocatorIS2_EEE14__annotate_newB8ue170006Em, symObjAddr: 0x6338, symBinAddr: 0x1000083D8, symSize: 0xAC }
  - { offsetInCU: 0x19956, offset: 0x19956, size: 0x8, addend: 0x0, symName: __ZNKSt3__16vectorIP4CityNS_9allocatorIS2_EEE31__annotate_contiguous_containerB8ue170006EPKvS7_S7_S7_, symObjAddr: 0x63E4, symBinAddr: 0x100008484, symSize: 0x20 }
  - { offsetInCU: 0x199A7, offset: 0x199A7, size: 0x8, addend: 0x0, symName: __ZNKSt3__16vectorIP4CityNS_9allocatorIS2_EEE4dataB8ue170006Ev, symObjAddr: 0x6404, symBinAddr: 0x1000084A4, symSize: 0x28 }
  - { offsetInCU: 0x199E5, offset: 0x199E5, size: 0x8, addend: 0x0, symName: __ZNKSt3__111__move_loopINS_17_ClassicAlgPolicyEEclB8ue170006INS_16reverse_iteratorIPP4CityEES8_S8_EENS_4pairIT_T1_EESA_T0_SB_, symObjAddr: 0x671C, symBinAddr: 0x1000087BC, symSize: 0xA0 }
  - { offsetInCU: 0x19A54, offset: 0x19A54, size: 0x8, addend: 0x0, symName: __ZNSt3__18_IterOpsINS_17_ClassicAlgPolicyEE11__iter_moveB8ue170006IRNS_16reverse_iteratorIPP4CityEEEENS_9enable_ifIXsr12is_referenceIDTdeclsr3stdE7declvalIRT_EEEEE5valueEDTclsr3stdE4movedeclsr3stdE7declvalISC_EEEEE4typeEOSB_, symObjAddr: 0x6950, symBinAddr: 0x1000089F0, symSize: 0x28 }
  - { offsetInCU: 0x19A80, offset: 0x19A80, size: 0x8, addend: 0x0, symName: __ZNKSt3__116reverse_iteratorIPP4CityEdeB8ue170006Ev, symObjAddr: 0x6978, symBinAddr: 0x100008A18, symSize: 0x28 }
  - { offsetInCU: 0x19AB3, offset: 0x19AB3, size: 0x8, addend: 0x0, symName: __ZNSt3__116reverse_iteratorIPP4CityEppB8ue170006Ev, symObjAddr: 0x69A0, symBinAddr: 0x100008A40, symSize: 0x20 }
  - { offsetInCU: 0x19AD8, offset: 0x19AD8, size: 0x8, addend: 0x0, symName: __ZNSt3__18_IterOpsINS_17_ClassicAlgPolicyEE25__validate_iter_referenceB8ue170006IRNS_16reverse_iteratorIPP4CityEEEEvv, symObjAddr: 0x69C0, symBinAddr: 0x100008A60, symSize: 0x4 }
  - { offsetInCU: 0x19AF6, offset: 0x19AF6, size: 0x8, addend: 0x0, symName: __ZNSt3__118__unwrap_iter_implINS_16reverse_iteratorIPP4CityEELb0EE8__unwrapB8ue170006ES5_, symObjAddr: 0x69C4, symBinAddr: 0x100008A64, symSize: 0x24 }
  - { offsetInCU: 0x19B1E, offset: 0x19B1E, size: 0x8, addend: 0x0, symName: __ZNSt3__14pairINS_16reverse_iteratorIPP4CityEES5_EC1B8ue170006IS5_S5_LPv0EEEOT_OT0_, symObjAddr: 0x69E8, symBinAddr: 0x100008A88, symSize: 0x3C }
  - { offsetInCU: 0x19B7B, offset: 0x19B7B, size: 0x8, addend: 0x0, symName: __ZNSt3__14pairINS_16reverse_iteratorIPP4CityEES5_EC2B8ue170006IS5_S5_LPv0EEEOT_OT0_, symObjAddr: 0x6A24, symBinAddr: 0x100008AC4, symSize: 0x34 }
  - { offsetInCU: 0x19BD8, offset: 0x19BD8, size: 0x8, addend: 0x0, symName: __ZNSt3__118__unwrap_iter_implINS_16reverse_iteratorIPP4CityEELb0EE8__rewrapB8ue170006ES5_S5_, symObjAddr: 0x6A58, symBinAddr: 0x100008AF8, symSize: 0x2C }
  - { offsetInCU: 0x19C06, offset: 0x19C06, size: 0x8, addend: 0x0, symName: __ZNSt3__116reverse_iteratorIPP4CityEC2B8ue170006ES3_, symObjAddr: 0x6A84, symBinAddr: 0x100008B24, symSize: 0x28 }
  - { offsetInCU: 0x19C3D, offset: 0x19C3D, size: 0x8, addend: 0x0, symName: __ZNSt3__114__split_bufferIP4CityRNS_9allocatorIS2_EEED2Ev, symObjAddr: 0x6AAC, symBinAddr: 0x100008B4C, symSize: 0x8C }
  - { offsetInCU: 0x19C68, offset: 0x19C68, size: 0x8, addend: 0x0, symName: __ZNSt3__114__split_bufferIP4CityRNS_9allocatorIS2_EEE5clearB8ue170006Ev, symObjAddr: 0x6B38, symBinAddr: 0x100008BD8, symSize: 0x28 }
  - { offsetInCU: 0x19C8D, offset: 0x19C8D, size: 0x8, addend: 0x0, symName: __ZNSt3__116allocator_traitsINS_9allocatorIP4CityEEE10deallocateB8ue170006ERS4_PS3_m, symObjAddr: 0x6B60, symBinAddr: 0x100008C00, symSize: 0x34 }
  - { offsetInCU: 0x19CCF, offset: 0x19CCF, size: 0x8, addend: 0x0, symName: __ZNKSt3__114__split_bufferIP4CityRNS_9allocatorIS2_EEE8capacityB8ue170006Ev, symObjAddr: 0x6B94, symBinAddr: 0x100008C34, symSize: 0x40 }
  - { offsetInCU: 0x19CF4, offset: 0x19CF4, size: 0x8, addend: 0x0, symName: __ZNSt3__114__split_bufferIP4CityRNS_9allocatorIS2_EEE17__destruct_at_endB8ue170006EPS2_, symObjAddr: 0x6BD4, symBinAddr: 0x100008C74, symSize: 0x2C }
  - { offsetInCU: 0x19D26, offset: 0x19D26, size: 0x8, addend: 0x0, symName: __ZNSt3__114__split_bufferIP4CityRNS_9allocatorIS2_EEE17__destruct_at_endB8ue170006EPS2_NS_17integral_constantIbLb0EEE, symObjAddr: 0x6C00, symBinAddr: 0x100008CA0, symSize: 0x80 }
  - { offsetInCU: 0x19D66, offset: 0x19D66, size: 0x8, addend: 0x0, symName: __ZNSt3__116allocator_traitsINS_9allocatorIP4CityEEE7destroyB8ue170006IS3_vEEvRS4_PT_, symObjAddr: 0x6C80, symBinAddr: 0x100008D20, symSize: 0x2C }
  - { offsetInCU: 0x19DA3, offset: 0x19DA3, size: 0x8, addend: 0x0, symName: __ZNSt3__19allocatorIP4CityE7destroyB8ue170006EPS2_, symObjAddr: 0x6CAC, symBinAddr: 0x100008D4C, symSize: 0x14 }
  - { offsetInCU: 0x19DD6, offset: 0x19DD6, size: 0x8, addend: 0x0, symName: __ZNSt3__19allocatorIP4CityE10deallocateB8ue170006EPS2_m, symObjAddr: 0x6CC0, symBinAddr: 0x100008D60, symSize: 0x40 }
  - { offsetInCU: 0x19E17, offset: 0x19E17, size: 0x8, addend: 0x0, symName: __ZNKSt3__114__split_bufferIP4CityRNS_9allocatorIS2_EEE9__end_capB8ue170006Ev, symObjAddr: 0x6D00, symBinAddr: 0x100008DA0, symSize: 0x28 }
  - { offsetInCU: 0x19E3C, offset: 0x19E3C, size: 0x8, addend: 0x0, symName: __ZNKSt3__117__compressed_pairIPP4CityRNS_9allocatorIS2_EEE5firstB8ue170006Ev, symObjAddr: 0x6D28, symBinAddr: 0x100008DC8, symSize: 0x24 }
  - { offsetInCU: 0x19E61, offset: 0x19E61, size: 0x8, addend: 0x0, symName: __ZNSt3__16vectorIP4CityNS_9allocatorIS2_EEE22__base_destruct_at_endB8ue170006EPS2_, symObjAddr: 0x6D4C, symBinAddr: 0x100008DEC, symSize: 0x8C }
  - { offsetInCU: 0x19EA4, offset: 0x19EA4, size: 0x8, addend: 0x0, symName: __ZNKSt3__16vectorIP4CityNS_9allocatorIS2_EEE17__annotate_shrinkB8ue170006Em, symObjAddr: 0x6DD8, symBinAddr: 0x100008E78, symSize: 0xB4 }
  - { offsetInCU: 0x19ED8, offset: 0x19ED8, size: 0x8, addend: 0x0, symName: __ZNSt3__16vectorINS0_I10BorderTypeNS_9allocatorIS1_EEEENS2_IS4_EEE11__make_iterB8ue170006EPS4_, symObjAddr: 0x6E8C, symBinAddr: 0x100008F2C, symSize: 0x30 }
  - { offsetInCU: 0x19F0C, offset: 0x19F0C, size: 0x8, addend: 0x0, symName: __ZNSt3__111__wrap_iterIPNS_6vectorI10BorderTypeNS_9allocatorIS2_EEEEEC1B8ue170006ES6_, symObjAddr: 0x6EBC, symBinAddr: 0x100008F5C, symSize: 0x34 }
  - { offsetInCU: 0x19F43, offset: 0x19F43, size: 0x8, addend: 0x0, symName: __ZNSt3__111__wrap_iterIPNS_6vectorI10BorderTypeNS_9allocatorIS2_EEEEEC2B8ue170006ES6_, symObjAddr: 0x6EF0, symBinAddr: 0x100008F90, symSize: 0x20 }
  - { offsetInCU: 0x19F79, offset: 0x19F79, size: 0x8, addend: 0x0, symName: __ZNSt3__16vectorI10BorderTypeNS_9allocatorIS1_EEE8__appendEm, symObjAddr: 0x6F10, symBinAddr: 0x100008FB0, symSize: 0x108 }
  - { offsetInCU: 0x19FD4, offset: 0x19FD4, size: 0x8, addend: 0x0, symName: __ZNSt3__16vectorI10BorderTypeNS_9allocatorIS1_EEE17__destruct_at_endB8ue170006EPS1_, symObjAddr: 0x7018, symBinAddr: 0x1000090B8, symSize: 0x4C }
  - { offsetInCU: 0x1A016, offset: 0x1A016, size: 0x8, addend: 0x0, symName: __ZNSt3__16vectorI10BorderTypeNS_9allocatorIS1_EEE18__construct_at_endEm, symObjAddr: 0x7064, symBinAddr: 0x100009104, symSize: 0xC8 }
  - { offsetInCU: 0x1A087, offset: 0x1A087, size: 0x8, addend: 0x0, symName: __ZNKSt3__16vectorI10BorderTypeNS_9allocatorIS1_EEE11__recommendB8ue170006Em, symObjAddr: 0x712C, symBinAddr: 0x1000091CC, symSize: 0xB4 }
  - { offsetInCU: 0x1A0DB, offset: 0x1A0DB, size: 0x8, addend: 0x0, symName: __ZNSt3__114__split_bufferI10BorderTypeRNS_9allocatorIS1_EEEC1EmmS4_, symObjAddr: 0x71E0, symBinAddr: 0x100009280, symSize: 0x44 }
  - { offsetInCU: 0x1A12F, offset: 0x1A12F, size: 0x8, addend: 0x0, symName: __ZNSt3__114__split_bufferI10BorderTypeRNS_9allocatorIS1_EEE18__construct_at_endEm, symObjAddr: 0x7224, symBinAddr: 0x1000092C4, symSize: 0xB4 }
  - { offsetInCU: 0x1A173, offset: 0x1A173, size: 0x8, addend: 0x0, symName: __ZNSt3__114__split_bufferI10BorderTypeRNS_9allocatorIS1_EEED1Ev, symObjAddr: 0x73E8, symBinAddr: 0x100009488, symSize: 0x2C }
  - { offsetInCU: 0x1A1B7, offset: 0x1A1B7, size: 0x8, addend: 0x0, symName: __ZNSt3__16vectorI10BorderTypeNS_9allocatorIS1_EEE21_ConstructTransactionC1B8ue170006ERS4_m, symObjAddr: 0x7414, symBinAddr: 0x1000094B4, symSize: 0x3C }
  - { offsetInCU: 0x1A1FE, offset: 0x1A1FE, size: 0x8, addend: 0x0, symName: __ZNSt3__116allocator_traitsINS_9allocatorI10BorderTypeEEE9constructB8ue170006IS2_JEvEEvRS3_PT_DpOT0_, symObjAddr: 0x7450, symBinAddr: 0x1000094F0, symSize: 0x2C }
  - { offsetInCU: 0x1A240, offset: 0x1A240, size: 0x8, addend: 0x0, symName: __ZNSt3__16vectorI10BorderTypeNS_9allocatorIS1_EEE21_ConstructTransactionD1B8ue170006Ev, symObjAddr: 0x747C, symBinAddr: 0x10000951C, symSize: 0x2C }
  - { offsetInCU: 0x1A269, offset: 0x1A269, size: 0x8, addend: 0x0, symName: __ZNSt3__16vectorI10BorderTypeNS_9allocatorIS1_EEE21_ConstructTransactionC2B8ue170006ERS4_m, symObjAddr: 0x74A8, symBinAddr: 0x100009548, symSize: 0x44 }
  - { offsetInCU: 0x1A2B0, offset: 0x1A2B0, size: 0x8, addend: 0x0, symName: __ZNSt3__19allocatorI10BorderTypeE9constructB8ue170006IS1_JEEEvPT_DpOT0_, symObjAddr: 0x74EC, symBinAddr: 0x10000958C, symSize: 0x1C }
  - { offsetInCU: 0x1A2F1, offset: 0x1A2F1, size: 0x8, addend: 0x0, symName: __ZNSt3__16vectorI10BorderTypeNS_9allocatorIS1_EEE21_ConstructTransactionD2B8ue170006Ev, symObjAddr: 0x7508, symBinAddr: 0x1000095A8, symSize: 0x20 }
  - { offsetInCU: 0x1A319, offset: 0x1A319, size: 0x8, addend: 0x0, symName: __ZNKSt3__16vectorI10BorderTypeNS_9allocatorIS1_EEE8max_sizeEv, symObjAddr: 0x7528, symBinAddr: 0x1000095C8, symSize: 0x60 }
  - { offsetInCU: 0x1A340, offset: 0x1A340, size: 0x8, addend: 0x0, symName: __ZNKSt3__16vectorI10BorderTypeNS_9allocatorIS1_EEE20__throw_length_errorB8ue170006Ev, symObjAddr: 0x7588, symBinAddr: 0x100009628, symSize: 0x1C }
  - { offsetInCU: 0x1A36F, offset: 0x1A36F, size: 0x8, addend: 0x0, symName: __ZNSt3__116allocator_traitsINS_9allocatorI10BorderTypeEEE8max_sizeB8ue170006IS3_vEEmRKS3_, symObjAddr: 0x75A4, symBinAddr: 0x100009644, symSize: 0x24 }
  - { offsetInCU: 0x1A39D, offset: 0x1A39D, size: 0x8, addend: 0x0, symName: __ZNKSt3__16vectorI10BorderTypeNS_9allocatorIS1_EEE7__allocB8ue170006Ev, symObjAddr: 0x75C8, symBinAddr: 0x100009668, symSize: 0x28 }
  - { offsetInCU: 0x1A3C2, offset: 0x1A3C2, size: 0x8, addend: 0x0, symName: __ZNKSt3__19allocatorI10BorderTypeE8max_sizeB8ue170006Ev, symObjAddr: 0x75F0, symBinAddr: 0x100009690, symSize: 0x14 }
  - { offsetInCU: 0x1A3E7, offset: 0x1A3E7, size: 0x8, addend: 0x0, symName: __ZNKSt3__117__compressed_pairIP10BorderTypeNS_9allocatorIS1_EEE6secondB8ue170006Ev, symObjAddr: 0x7604, symBinAddr: 0x1000096A4, symSize: 0x24 }
  - { offsetInCU: 0x1A40C, offset: 0x1A40C, size: 0x8, addend: 0x0, symName: __ZNKSt3__122__compressed_pair_elemINS_9allocatorI10BorderTypeEELi1ELb1EE5__getB8ue170006Ev, symObjAddr: 0x7628, symBinAddr: 0x1000096C8, symSize: 0x14 }
  - { offsetInCU: 0x1A431, offset: 0x1A431, size: 0x8, addend: 0x0, symName: __ZNSt3__114__split_bufferI10BorderTypeRNS_9allocatorIS1_EEEC2EmmS4_, symObjAddr: 0x763C, symBinAddr: 0x1000096DC, symSize: 0xD4 }
  - { offsetInCU: 0x1A4A4, offset: 0x1A4A4, size: 0x8, addend: 0x0, symName: __ZNSt3__117__compressed_pairIP10BorderTypeRNS_9allocatorIS1_EEEC1B8ue170006IDnS5_EEOT_OT0_, symObjAddr: 0x7710, symBinAddr: 0x1000097B0, symSize: 0x3C }
  - { offsetInCU: 0x1A4FB, offset: 0x1A4FB, size: 0x8, addend: 0x0, symName: __ZNSt3__114__split_bufferI10BorderTypeRNS_9allocatorIS1_EEE7__allocB8ue170006Ev, symObjAddr: 0x778C, symBinAddr: 0x10000982C, symSize: 0x28 }
  - { offsetInCU: 0x1A520, offset: 0x1A520, size: 0x8, addend: 0x0, symName: __ZNSt3__114__split_bufferI10BorderTypeRNS_9allocatorIS1_EEE9__end_capB8ue170006Ev, symObjAddr: 0x77B4, symBinAddr: 0x100009854, symSize: 0x28 }
  - { offsetInCU: 0x1A545, offset: 0x1A545, size: 0x8, addend: 0x0, symName: __ZNSt3__117__compressed_pairIP10BorderTypeRNS_9allocatorIS1_EEEC2B8ue170006IDnS5_EEOT_OT0_, symObjAddr: 0x77DC, symBinAddr: 0x10000987C, symSize: 0x48 }
  - { offsetInCU: 0x1A59C, offset: 0x1A59C, size: 0x8, addend: 0x0, symName: __ZNSt3__122__compressed_pair_elemIRNS_9allocatorI10BorderTypeEELi1ELb0EEC2B8ue170006IS4_vEEOT_, symObjAddr: 0x7824, symBinAddr: 0x1000098C4, symSize: 0x20 }
  - { offsetInCU: 0x1A5DD, offset: 0x1A5DD, size: 0x8, addend: 0x0, symName: __ZNSt3__19allocatorI10BorderTypeE8allocateB8ue170006Em, symObjAddr: 0x7844, symBinAddr: 0x1000098E4, symSize: 0x58 }
  - { offsetInCU: 0x1A610, offset: 0x1A610, size: 0x8, addend: 0x0, symName: __ZNSt3__117__compressed_pairIP10BorderTypeRNS_9allocatorIS1_EEE6secondB8ue170006Ev, symObjAddr: 0x789C, symBinAddr: 0x10000993C, symSize: 0x28 }
  - { offsetInCU: 0x1A635, offset: 0x1A635, size: 0x8, addend: 0x0, symName: __ZNSt3__122__compressed_pair_elemIRNS_9allocatorI10BorderTypeEELi1ELb0EE5__getB8ue170006Ev, symObjAddr: 0x78C4, symBinAddr: 0x100009964, symSize: 0x18 }
  - { offsetInCU: 0x1A65A, offset: 0x1A65A, size: 0x8, addend: 0x0, symName: __ZNSt3__117__compressed_pairIP10BorderTypeRNS_9allocatorIS1_EEE5firstB8ue170006Ev, symObjAddr: 0x78DC, symBinAddr: 0x10000997C, symSize: 0x24 }
  - { offsetInCU: 0x1A689, offset: 0x1A689, size: 0x8, addend: 0x0, symName: __ZNSt3__114__split_bufferI10BorderTypeRNS_9allocatorIS1_EEE21_ConstructTransactionC1B8ue170006EPPS1_m, symObjAddr: 0x7900, symBinAddr: 0x1000099A0, symSize: 0x3C }
  - { offsetInCU: 0x1A6CE, offset: 0x1A6CE, size: 0x8, addend: 0x0, symName: __ZNSt3__114__split_bufferI10BorderTypeRNS_9allocatorIS1_EEE21_ConstructTransactionD1B8ue170006Ev, symObjAddr: 0x793C, symBinAddr: 0x1000099DC, symSize: 0x2C }
  - { offsetInCU: 0x1A6F7, offset: 0x1A6F7, size: 0x8, addend: 0x0, symName: __ZNSt3__114__split_bufferI10BorderTypeRNS_9allocatorIS1_EEE21_ConstructTransactionC2B8ue170006EPPS1_m, symObjAddr: 0x7968, symBinAddr: 0x100009A08, symSize: 0x44 }
  - { offsetInCU: 0x1A73C, offset: 0x1A73C, size: 0x8, addend: 0x0, symName: __ZNSt3__114__split_bufferI10BorderTypeRNS_9allocatorIS1_EEE21_ConstructTransactionD2B8ue170006Ev, symObjAddr: 0x79AC, symBinAddr: 0x100009A4C, symSize: 0x20 }
  - { offsetInCU: 0x1A765, offset: 0x1A765, size: 0x8, addend: 0x0, symName: __ZNSt3__116reverse_iteratorIP10BorderTypeEC1B8ue170006ES2_, symObjAddr: 0x7A44, symBinAddr: 0x100009AE4, symSize: 0x34 }
  - { offsetInCU: 0x1A79C, offset: 0x1A79C, size: 0x8, addend: 0x0, symName: __ZNKSt3__116reverse_iteratorIP10BorderTypeE4baseB8ue170006Ev, symObjAddr: 0x7A78, symBinAddr: 0x100009B18, symSize: 0x18 }
  - { offsetInCU: 0x1A7C1, offset: 0x1A7C1, size: 0x8, addend: 0x0, symName: __ZNKSt3__16vectorI10BorderTypeNS_9allocatorIS1_EEE14__annotate_newB8ue170006Em, symObjAddr: 0x7ACC, symBinAddr: 0x100009B6C, symSize: 0xAC }
  - { offsetInCU: 0x1A80E, offset: 0x1A80E, size: 0x8, addend: 0x0, symName: __ZNKSt3__111__move_loopINS_17_ClassicAlgPolicyEEclB8ue170006INS_16reverse_iteratorIP10BorderTypeEES7_S7_EENS_4pairIT_T1_EES9_T0_SA_, symObjAddr: 0x7E68, symBinAddr: 0x100009F08, symSize: 0xA0 }
  - { offsetInCU: 0x1A87D, offset: 0x1A87D, size: 0x8, addend: 0x0, symName: __ZNSt3__18_IterOpsINS_17_ClassicAlgPolicyEE11__iter_moveB8ue170006IRNS_16reverse_iteratorIP10BorderTypeEEEENS_9enable_ifIXsr12is_referenceIDTdeclsr3stdE7declvalIRT_EEEEE5valueEDTclsr3stdE4movedeclsr3stdE7declvalISB_EEEEE4typeEOSA_, symObjAddr: 0x809C, symBinAddr: 0x10000A13C, symSize: 0x28 }
  - { offsetInCU: 0x1A8A9, offset: 0x1A8A9, size: 0x8, addend: 0x0, symName: __ZNKSt3__116reverse_iteratorIP10BorderTypeEdeB8ue170006Ev, symObjAddr: 0x80C4, symBinAddr: 0x10000A164, symSize: 0x28 }
  - { offsetInCU: 0x1A8DC, offset: 0x1A8DC, size: 0x8, addend: 0x0, symName: __ZNSt3__116reverse_iteratorIP10BorderTypeEppB8ue170006Ev, symObjAddr: 0x80EC, symBinAddr: 0x10000A18C, symSize: 0x20 }
  - { offsetInCU: 0x1A901, offset: 0x1A901, size: 0x8, addend: 0x0, symName: __ZNSt3__18_IterOpsINS_17_ClassicAlgPolicyEE25__validate_iter_referenceB8ue170006IRNS_16reverse_iteratorIP10BorderTypeEEEEvv, symObjAddr: 0x810C, symBinAddr: 0x10000A1AC, symSize: 0x4 }
  - { offsetInCU: 0x1A91F, offset: 0x1A91F, size: 0x8, addend: 0x0, symName: __ZNSt3__118__unwrap_iter_implINS_16reverse_iteratorIP10BorderTypeEELb0EE8__unwrapB8ue170006ES4_, symObjAddr: 0x8110, symBinAddr: 0x10000A1B0, symSize: 0x24 }
  - { offsetInCU: 0x1A947, offset: 0x1A947, size: 0x8, addend: 0x0, symName: __ZNSt3__14pairINS_16reverse_iteratorIP10BorderTypeEES4_EC1B8ue170006IS4_S4_LPv0EEEOT_OT0_, symObjAddr: 0x8134, symBinAddr: 0x10000A1D4, symSize: 0x3C }
  - { offsetInCU: 0x1A9A4, offset: 0x1A9A4, size: 0x8, addend: 0x0, symName: __ZNSt3__14pairINS_16reverse_iteratorIP10BorderTypeEES4_EC2B8ue170006IS4_S4_LPv0EEEOT_OT0_, symObjAddr: 0x8170, symBinAddr: 0x10000A210, symSize: 0x34 }
  - { offsetInCU: 0x1AA01, offset: 0x1AA01, size: 0x8, addend: 0x0, symName: __ZNSt3__118__unwrap_iter_implINS_16reverse_iteratorIP10BorderTypeEELb0EE8__rewrapB8ue170006ES4_S4_, symObjAddr: 0x81A4, symBinAddr: 0x10000A244, symSize: 0x2C }
  - { offsetInCU: 0x1AA2F, offset: 0x1AA2F, size: 0x8, addend: 0x0, symName: __ZNSt3__116reverse_iteratorIP10BorderTypeEC2B8ue170006ES2_, symObjAddr: 0x81D0, symBinAddr: 0x10000A270, symSize: 0x28 }
  - { offsetInCU: 0x1AA66, offset: 0x1AA66, size: 0x8, addend: 0x0, symName: __ZNSt3__114__split_bufferI10BorderTypeRNS_9allocatorIS1_EEED2Ev, symObjAddr: 0x81F8, symBinAddr: 0x10000A298, symSize: 0x8C }
  - { offsetInCU: 0x1AA91, offset: 0x1AA91, size: 0x8, addend: 0x0, symName: __ZNSt3__114__split_bufferI10BorderTypeRNS_9allocatorIS1_EEE5clearB8ue170006Ev, symObjAddr: 0x8284, symBinAddr: 0x10000A324, symSize: 0x28 }
  - { offsetInCU: 0x1AAB6, offset: 0x1AAB6, size: 0x8, addend: 0x0, symName: __ZNKSt3__114__split_bufferI10BorderTypeRNS_9allocatorIS1_EEE8capacityB8ue170006Ev, symObjAddr: 0x82AC, symBinAddr: 0x10000A34C, symSize: 0x40 }
  - { offsetInCU: 0x1AADB, offset: 0x1AADB, size: 0x8, addend: 0x0, symName: __ZNSt3__114__split_bufferI10BorderTypeRNS_9allocatorIS1_EEE17__destruct_at_endB8ue170006EPS1_, symObjAddr: 0x82EC, symBinAddr: 0x10000A38C, symSize: 0x2C }
  - { offsetInCU: 0x1AB0D, offset: 0x1AB0D, size: 0x8, addend: 0x0, symName: __ZNSt3__114__split_bufferI10BorderTypeRNS_9allocatorIS1_EEE17__destruct_at_endB8ue170006EPS1_NS_17integral_constantIbLb0EEE, symObjAddr: 0x8318, symBinAddr: 0x10000A3B8, symSize: 0x80 }
  - { offsetInCU: 0x1AB4D, offset: 0x1AB4D, size: 0x8, addend: 0x0, symName: __ZNKSt3__114__split_bufferI10BorderTypeRNS_9allocatorIS1_EEE9__end_capB8ue170006Ev, symObjAddr: 0x8398, symBinAddr: 0x10000A438, symSize: 0x28 }
  - { offsetInCU: 0x1AB72, offset: 0x1AB72, size: 0x8, addend: 0x0, symName: __ZNKSt3__117__compressed_pairIP10BorderTypeRNS_9allocatorIS1_EEE5firstB8ue170006Ev, symObjAddr: 0x83C0, symBinAddr: 0x10000A460, symSize: 0x24 }
  - { offsetInCU: 0x1AB97, offset: 0x1AB97, size: 0x8, addend: 0x0, symName: __ZNKSt3__16vectorI10BorderTypeNS_9allocatorIS1_EEE17__annotate_shrinkB8ue170006Em, symObjAddr: 0x83E4, symBinAddr: 0x10000A484, symSize: 0xB4 }
  - { offsetInCU: 0x1ABCB, offset: 0x1ABCB, size: 0x8, addend: 0x0, symName: __ZNKSt3__113unordered_mapINS_12basic_stringIcNS_11char_traitsIcEENS_9allocatorIcEEEEP4CityNS_4hashIS6_EENS_8equal_toIS6_EENS4_INS_4pairIKS6_S8_EEEEE4findB8ue170006ERSE_, symObjAddr: 0x8498, symBinAddr: 0x10000A538, symSize: 0x40 }
  - { offsetInCU: 0x1ABFF, offset: 0x1ABFF, size: 0x8, addend: 0x0, symName: __ZNKSt3__113unordered_mapINS_12basic_stringIcNS_11char_traitsIcEENS_9allocatorIcEEEEP4CityNS_4hashIS6_EENS_8equal_toIS6_EENS4_INS_4pairIKS6_S8_EEEEE3endB8ue170006Ev, symObjAddr: 0x8508, symBinAddr: 0x10000A5A8, symSize: 0x38 }
  - { offsetInCU: 0x1AC24, offset: 0x1AC24, size: 0x8, addend: 0x0, symName: __ZNKSt3__125__hash_map_const_iteratorINS_21__hash_const_iteratorIPNS_11__hash_nodeINS_17__hash_value_typeINS_12basic_stringIcNS_11char_traitsIcEENS_9allocatorIcEEEEP4CityEEPvEEEEEptB8ue170006Ev, symObjAddr: 0x85A4, symBinAddr: 0x10000A644, symSize: 0x2C }
  - { offsetInCU: 0x1AC48, offset: 0x1AC48, size: 0x8, addend: 0x0, symName: __ZNKSt3__112__hash_tableINS_17__hash_value_typeINS_12basic_stringIcNS_11char_traitsIcEENS_9allocatorIcEEEEP4CityEENS_22__unordered_map_hasherIS7_SA_NS_4hashIS7_EENS_8equal_toIS7_EELb1EEENS_21__unordered_map_equalIS7_SA_SF_SD_Lb1EEENS5_ISA_EEE4findIS7_EENS_21__hash_const_iteratorIPNS_11__hash_nodeISA_PvEEEERKT_, symObjAddr: 0x85D0, symBinAddr: 0x10000A670, symSize: 0x1B8 }
  - { offsetInCU: 0x1ACD2, offset: 0x1ACD2, size: 0x8, addend: 0x0, symName: __ZNSt3__125__hash_map_const_iteratorINS_21__hash_const_iteratorIPNS_11__hash_nodeINS_17__hash_value_typeINS_12basic_stringIcNS_11char_traitsIcEENS_9allocatorIcEEEEP4CityEEPvEEEEEC1B8ue170006ESG_, symObjAddr: 0x8788, symBinAddr: 0x10000A828, symSize: 0x34 }
  - { offsetInCU: 0x1AD0A, offset: 0x1AD0A, size: 0x8, addend: 0x0, symName: __ZNKSt3__112__hash_tableINS_17__hash_value_typeINS_12basic_stringIcNS_11char_traitsIcEENS_9allocatorIcEEEEP4CityEENS_22__unordered_map_hasherIS7_SA_NS_4hashIS7_EENS_8equal_toIS7_EELb1EEENS_21__unordered_map_equalIS7_SA_SF_SD_Lb1EEENS5_ISA_EEE13hash_functionB8ue170006Ev, symObjAddr: 0x87BC, symBinAddr: 0x10000A85C, symSize: 0x28 }
  - { offsetInCU: 0x1AD2F, offset: 0x1AD2F, size: 0x8, addend: 0x0, symName: __ZNKSt3__122__unordered_map_hasherINS_12basic_stringIcNS_11char_traitsIcEENS_9allocatorIcEEEENS_17__hash_value_typeIS6_P4CityEENS_4hashIS6_EENS_8equal_toIS6_EELb1EEclB8ue170006ERKS6_, symObjAddr: 0x87E4, symBinAddr: 0x10000A884, symSize: 0x2C }
  - { offsetInCU: 0x1AD63, offset: 0x1AD63, size: 0x8, addend: 0x0, symName: __ZNKSt3__112__hash_tableINS_17__hash_value_typeINS_12basic_stringIcNS_11char_traitsIcEENS_9allocatorIcEEEEP4CityEENS_22__unordered_map_hasherIS7_SA_NS_4hashIS7_EENS_8equal_toIS7_EELb1EEENS_21__unordered_map_equalIS7_SA_SF_SD_Lb1EEENS5_ISA_EEE12bucket_countB8ue170006Ev, symObjAddr: 0x8810, symBinAddr: 0x10000A8B0, symSize: 0x28 }
  - { offsetInCU: 0x1AD88, offset: 0x1AD88, size: 0x8, addend: 0x0, symName: __ZNKSt3__110unique_ptrIA_PNS_16__hash_node_baseIPNS_11__hash_nodeINS_17__hash_value_typeINS_12basic_stringIcNS_11char_traitsIcEENS_9allocatorIcEEEEP4CityEEPvEEEENS_25__bucket_list_deallocatorINS7_ISH_EEEEEixB8ue170006Em, symObjAddr: 0x88D0, symBinAddr: 0x10000A970, symSize: 0x34 }
  - { offsetInCU: 0x1ADBC, offset: 0x1ADBC, size: 0x8, addend: 0x0, symName: __ZNKSt3__116__hash_node_baseIPNS_11__hash_nodeINS_17__hash_value_typeINS_12basic_stringIcNS_11char_traitsIcEENS_9allocatorIcEEEEP4CityEEPvEEE6__hashB8ue170006Ev, symObjAddr: 0x8904, symBinAddr: 0x10000A9A4, symSize: 0x18 }
  - { offsetInCU: 0x1ADE1, offset: 0x1ADE1, size: 0x8, addend: 0x0, symName: __ZNKSt3__112__hash_tableINS_17__hash_value_typeINS_12basic_stringIcNS_11char_traitsIcEENS_9allocatorIcEEEEP4CityEENS_22__unordered_map_hasherIS7_SA_NS_4hashIS7_EENS_8equal_toIS7_EELb1EEENS_21__unordered_map_equalIS7_SA_SF_SD_Lb1EEENS5_ISA_EEE6key_eqB8ue170006Ev, symObjAddr: 0x891C, symBinAddr: 0x10000A9BC, symSize: 0x28 }
  - { offsetInCU: 0x1AE06, offset: 0x1AE06, size: 0x8, addend: 0x0, symName: __ZNKSt3__121__unordered_map_equalINS_12basic_stringIcNS_11char_traitsIcEENS_9allocatorIcEEEENS_17__hash_value_typeIS6_P4CityEENS_8equal_toIS6_EENS_4hashIS6_EELb1EEclB8ue170006ERKSA_RKS6_, symObjAddr: 0x8944, symBinAddr: 0x10000A9E4, symSize: 0x48 }
  - { offsetInCU: 0x1AE49, offset: 0x1AE49, size: 0x8, addend: 0x0, symName: __ZNSt3__116__hash_node_baseIPNS_11__hash_nodeINS_17__hash_value_typeINS_12basic_stringIcNS_11char_traitsIcEENS_9allocatorIcEEEEP4CityEEPvEEE8__upcastB8ue170006Ev, symObjAddr: 0x898C, symBinAddr: 0x10000AA2C, symSize: 0x24 }
  - { offsetInCU: 0x1AE6E, offset: 0x1AE6E, size: 0x8, addend: 0x0, symName: __ZNSt3__121__hash_const_iteratorIPNS_11__hash_nodeINS_17__hash_value_typeINS_12basic_stringIcNS_11char_traitsIcEENS_9allocatorIcEEEEP4CityEEPvEEEC1B8ue170006EPNS_16__hash_node_baseISE_EE, symObjAddr: 0x89B0, symBinAddr: 0x10000AA50, symSize: 0x34 }
  - { offsetInCU: 0x1AEA5, offset: 0x1AEA5, size: 0x8, addend: 0x0, symName: __ZNKSt3__112__hash_tableINS_17__hash_value_typeINS_12basic_stringIcNS_11char_traitsIcEENS_9allocatorIcEEEEP4CityEENS_22__unordered_map_hasherIS7_SA_NS_4hashIS7_EENS_8equal_toIS7_EELb1EEENS_21__unordered_map_equalIS7_SA_SF_SD_Lb1EEENS5_ISA_EEE3endEv, symObjAddr: 0x89E4, symBinAddr: 0x10000AA84, symSize: 0x2C }
  - { offsetInCU: 0x1AECC, offset: 0x1AECC, size: 0x8, addend: 0x0, symName: __ZNKSt3__117__compressed_pairImNS_22__unordered_map_hasherINS_12basic_stringIcNS_11char_traitsIcEENS_9allocatorIcEEEENS_17__hash_value_typeIS7_P4CityEENS_4hashIS7_EENS_8equal_toIS7_EELb1EEEE6secondB8ue170006Ev, symObjAddr: 0x8A10, symBinAddr: 0x10000AAB0, symSize: 0x24 }
  - { offsetInCU: 0x1AEF1, offset: 0x1AEF1, size: 0x8, addend: 0x0, symName: __ZNKSt3__122__compressed_pair_elemINS_22__unordered_map_hasherINS_12basic_stringIcNS_11char_traitsIcEENS_9allocatorIcEEEENS_17__hash_value_typeIS7_P4CityEENS_4hashIS7_EENS_8equal_toIS7_EELb1EEELi1ELb1EE5__getB8ue170006Ev, symObjAddr: 0x8A34, symBinAddr: 0x10000AAD4, symSize: 0x14 }
  - { offsetInCU: 0x1AF16, offset: 0x1AF16, size: 0x8, addend: 0x0, symName: __ZNKSt3__113__string_hashIcNS_9allocatorIcEEEclB8ue170006ERKNS_12basic_stringIcNS_11char_traitsIcEES2_EE, symObjAddr: 0x8A48, symBinAddr: 0x10000AAE8, symSize: 0x64 }
  - { offsetInCU: 0x1AF4A, offset: 0x1AF4A, size: 0x8, addend: 0x0, symName: __ZNKSt3__112basic_stringIcNS_11char_traitsIcEENS_9allocatorIcEEE4sizeB8ue170006Ev, symObjAddr: 0x8AE8, symBinAddr: 0x10000AB88, symSize: 0x54 }
  - { offsetInCU: 0x1AF6F, offset: 0x1AF6F, size: 0x8, addend: 0x0, symName: __ZNKSt3__121__murmur2_or_cityhashImLm64EEclB8ue170006EPKvm, symObjAddr: 0x8B3C, symBinAddr: 0x10000ABDC, symSize: 0x410 }
  - { offsetInCU: 0x1B008, offset: 0x1B008, size: 0x8, addend: 0x0, symName: __ZNSt3__121__murmur2_or_cityhashImLm64EE18__hash_len_0_to_16B8ue170006EPKcm, symObjAddr: 0x8F4C, symBinAddr: 0x10000AFEC, symSize: 0x1C0 }
  - { offsetInCU: 0x1B0E4, offset: 0x1B0E4, size: 0x8, addend: 0x0, symName: __ZNSt3__121__murmur2_or_cityhashImLm64EE19__hash_len_17_to_32B8ue170006EPKcm, symObjAddr: 0x910C, symBinAddr: 0x10000B1AC, symSize: 0x130 }
  - { offsetInCU: 0x1B14D, offset: 0x1B14D, size: 0x8, addend: 0x0, symName: __ZNSt3__121__murmur2_or_cityhashImLm64EE19__hash_len_33_to_64B8ue170006EPKcm, symObjAddr: 0x923C, symBinAddr: 0x10000B2DC, symSize: 0x2B8 }
  - { offsetInCU: 0x1B202, offset: 0x1B202, size: 0x8, addend: 0x0, symName: __ZNSt3__121__murmur2_or_cityhashImLm64EE13__hash_len_16B8ue170006Emm, symObjAddr: 0x9514, symBinAddr: 0x10000B5B4, symSize: 0x80 }
  - { offsetInCU: 0x1B25D, offset: 0x1B25D, size: 0x8, addend: 0x0, symName: __ZNSt3__121__murmur2_or_cityhashImLm64EE29__weak_hash_len_32_with_seedsB8ue170006EPKcmm, symObjAddr: 0x9594, symBinAddr: 0x10000B634, symSize: 0x88 }
  - { offsetInCU: 0x1B29C, offset: 0x1B29C, size: 0x8, addend: 0x0, symName: __ZNSt3__121__murmur2_or_cityhashImLm64EE8__rotateB8ue170006Emi, symObjAddr: 0x961C, symBinAddr: 0x10000B6BC, symSize: 0x64 }
  - { offsetInCU: 0x1B2CD, offset: 0x1B2CD, size: 0x8, addend: 0x0, symName: __ZNSt3__14pairImmEaSB8ue170006EOS1_, symObjAddr: 0x9680, symBinAddr: 0x10000B720, symSize: 0x30 }
  - { offsetInCU: 0x1B301, offset: 0x1B301, size: 0x8, addend: 0x0, symName: __ZNSt3__121__murmur2_or_cityhashImLm64EE11__shift_mixB8ue170006Em, symObjAddr: 0x96EC, symBinAddr: 0x10000B78C, symSize: 0x1C }
  - { offsetInCU: 0x1B324, offset: 0x1B324, size: 0x8, addend: 0x0, symName: __ZNSt3__121__murmur2_or_cityhashImLm64EE22__rotate_by_at_least_1B8ue170006Emi, symObjAddr: 0x9708, symBinAddr: 0x10000B7A8, symSize: 0x38 }
  - { offsetInCU: 0x1B355, offset: 0x1B355, size: 0x8, addend: 0x0, symName: __ZNSt3__121__murmur2_or_cityhashImLm64EE29__weak_hash_len_32_with_seedsB8ue170006Emmmmmm, symObjAddr: 0x9760, symBinAddr: 0x10000B800, symSize: 0xD8 }
  - { offsetInCU: 0x1B3D1, offset: 0x1B3D1, size: 0x8, addend: 0x0, symName: __ZNSt3__14pairImmEC1B8ue170006ImmLPv0EEEOT_OT0_, symObjAddr: 0x9838, symBinAddr: 0x10000B8D8, symSize: 0x3C }
  - { offsetInCU: 0x1B42E, offset: 0x1B42E, size: 0x8, addend: 0x0, symName: __ZNSt3__14pairImmEC2B8ue170006ImmLPv0EEEOT_OT0_, symObjAddr: 0x9874, symBinAddr: 0x10000B914, symSize: 0x34 }
  - { offsetInCU: 0x1B48B, offset: 0x1B48B, size: 0x8, addend: 0x0, symName: __ZNKSt3__112basic_stringIcNS_11char_traitsIcEENS_9allocatorIcEEE15__get_long_sizeB8ue170006Ev, symObjAddr: 0x98A8, symBinAddr: 0x10000B948, symSize: 0x28 }
  - { offsetInCU: 0x1B4B0, offset: 0x1B4B0, size: 0x8, addend: 0x0, symName: __ZNKSt3__112basic_stringIcNS_11char_traitsIcEENS_9allocatorIcEEE16__get_short_sizeB8ue170006Ev, symObjAddr: 0x98D0, symBinAddr: 0x10000B970, symSize: 0x34 }
  - { offsetInCU: 0x1B4D5, offset: 0x1B4D5, size: 0x8, addend: 0x0, symName: __ZNKSt3__110unique_ptrIA_PNS_16__hash_node_baseIPNS_11__hash_nodeINS_17__hash_value_typeINS_12basic_stringIcNS_11char_traitsIcEENS_9allocatorIcEEEEP4CityEEPvEEEENS_25__bucket_list_deallocatorINS7_ISH_EEEEE11get_deleterB8ue170006Ev, symObjAddr: 0x9904, symBinAddr: 0x10000B9A4, symSize: 0x24 }
  - { offsetInCU: 0x1B4FA, offset: 0x1B4FA, size: 0x8, addend: 0x0, symName: __ZNKSt3__125__bucket_list_deallocatorINS_9allocatorIPNS_16__hash_node_baseIPNS_11__hash_nodeINS_17__hash_value_typeINS_12basic_stringIcNS_11char_traitsIcEENS1_IcEEEEP4CityEEPvEEEEEEE4sizeB8ue170006Ev, symObjAddr: 0x9928, symBinAddr: 0x10000B9C8, symSize: 0x28 }
  - { offsetInCU: 0x1B51F, offset: 0x1B51F, size: 0x8, addend: 0x0, symName: __ZNKSt3__117__compressed_pairIPPNS_16__hash_node_baseIPNS_11__hash_nodeINS_17__hash_value_typeINS_12basic_stringIcNS_11char_traitsIcEENS_9allocatorIcEEEEP4CityEEPvEEEENS_25__bucket_list_deallocatorINS7_ISH_EEEEE6secondB8ue170006Ev, symObjAddr: 0x9950, symBinAddr: 0x10000B9F0, symSize: 0x28 }
  - { offsetInCU: 0x1B544, offset: 0x1B544, size: 0x8, addend: 0x0, symName: __ZNKSt3__122__compressed_pair_elemINS_25__bucket_list_deallocatorINS_9allocatorIPNS_16__hash_node_baseIPNS_11__hash_nodeINS_17__hash_value_typeINS_12basic_stringIcNS_11char_traitsIcEENS2_IcEEEEP4CityEEPvEEEEEEEELi1ELb0EE5__getB8ue170006Ev, symObjAddr: 0x9978, symBinAddr: 0x10000BA18, symSize: 0x14 }
  - { offsetInCU: 0x1B569, offset: 0x1B569, size: 0x8, addend: 0x0, symName: __ZNKSt3__117__compressed_pairImNS_9allocatorIPNS_16__hash_node_baseIPNS_11__hash_nodeINS_17__hash_value_typeINS_12basic_stringIcNS_11char_traitsIcEENS1_IcEEEEP4CityEEPvEEEEEEE5firstB8ue170006Ev, symObjAddr: 0x998C, symBinAddr: 0x10000BA2C, symSize: 0x24 }
  - { offsetInCU: 0x1B58E, offset: 0x1B58E, size: 0x8, addend: 0x0, symName: __ZNKSt3__122__compressed_pair_elemImLi0ELb0EE5__getB8ue170006Ev, symObjAddr: 0x99B0, symBinAddr: 0x10000BA50, symSize: 0x14 }
  - { offsetInCU: 0x1B5B3, offset: 0x1B5B3, size: 0x8, addend: 0x0, symName: __ZNKSt3__117__compressed_pairIPPNS_16__hash_node_baseIPNS_11__hash_nodeINS_17__hash_value_typeINS_12basic_stringIcNS_11char_traitsIcEENS_9allocatorIcEEEEP4CityEEPvEEEENS_25__bucket_list_deallocatorINS7_ISH_EEEEE5firstB8ue170006Ev, symObjAddr: 0x99C4, symBinAddr: 0x10000BA64, symSize: 0x24 }
  - { offsetInCU: 0x1B5D8, offset: 0x1B5D8, size: 0x8, addend: 0x0, symName: __ZNKSt3__122__compressed_pair_elemIPPNS_16__hash_node_baseIPNS_11__hash_nodeINS_17__hash_value_typeINS_12basic_stringIcNS_11char_traitsIcEENS_9allocatorIcEEEEP4CityEEPvEEEELi0ELb0EE5__getB8ue170006Ev, symObjAddr: 0x99E8, symBinAddr: 0x10000BA88, symSize: 0x14 }
  - { offsetInCU: 0x1B5FD, offset: 0x1B5FD, size: 0x8, addend: 0x0, symName: __ZNKSt3__117__compressed_pairIfNS_21__unordered_map_equalINS_12basic_stringIcNS_11char_traitsIcEENS_9allocatorIcEEEENS_17__hash_value_typeIS7_P4CityEENS_8equal_toIS7_EENS_4hashIS7_EELb1EEEE6secondB8ue170006Ev, symObjAddr: 0x99FC, symBinAddr: 0x10000BA9C, symSize: 0x24 }
  - { offsetInCU: 0x1B622, offset: 0x1B622, size: 0x8, addend: 0x0, symName: __ZNKSt3__122__compressed_pair_elemINS_21__unordered_map_equalINS_12basic_stringIcNS_11char_traitsIcEENS_9allocatorIcEEEENS_17__hash_value_typeIS7_P4CityEENS_8equal_toIS7_EENS_4hashIS7_EELb1EEELi1ELb1EE5__getB8ue170006Ev, symObjAddr: 0x9A20, symBinAddr: 0x10000BAC0, symSize: 0x14 }
  - { offsetInCU: 0x1B647, offset: 0x1B647, size: 0x8, addend: 0x0, symName: __ZNKSt3__18equal_toINS_12basic_stringIcNS_11char_traitsIcEENS_9allocatorIcEEEEEclB8ue170006ERKS6_S9_, symObjAddr: 0x9A34, symBinAddr: 0x10000BAD4, symSize: 0x34 }
  - { offsetInCU: 0x1B68A, offset: 0x1B68A, size: 0x8, addend: 0x0, symName: __ZNKSt3__117__hash_value_typeINS_12basic_stringIcNS_11char_traitsIcEENS_9allocatorIcEEEEP4CityE11__get_valueB8ue170006Ev, symObjAddr: 0x9A68, symBinAddr: 0x10000BB08, symSize: 0x14 }
  - { offsetInCU: 0x1B6AF, offset: 0x1B6AF, size: 0x8, addend: 0x0, symName: __ZNSt3__111char_traitsIcE7compareB8ue170006EPKcS3_m, symObjAddr: 0x9BC4, symBinAddr: 0x10000BC64, symSize: 0x34 }
  - { offsetInCU: 0x1B6EE, offset: 0x1B6EE, size: 0x8, addend: 0x0, symName: __ZNSt3__114pointer_traitsIPNS_16__hash_node_baseIPNS_11__hash_nodeINS_17__hash_value_typeINS_12basic_stringIcNS_11char_traitsIcEENS_9allocatorIcEEEEP4CityEEPvEEEEE10pointer_toB8ue170006ERSG_, symObjAddr: 0x9BF8, symBinAddr: 0x10000BC98, symSize: 0x14 }
  - { offsetInCU: 0x1B711, offset: 0x1B711, size: 0x8, addend: 0x0, symName: __ZNSt3__121__hash_const_iteratorIPNS_11__hash_nodeINS_17__hash_value_typeINS_12basic_stringIcNS_11char_traitsIcEENS_9allocatorIcEEEEP4CityEEPvEEEC2B8ue170006EPNS_16__hash_node_baseISE_EE, symObjAddr: 0x9C0C, symBinAddr: 0x10000BCAC, symSize: 0x20 }
  - { offsetInCU: 0x1B749, offset: 0x1B749, size: 0x8, addend: 0x0, symName: __ZNSt3__125__hash_map_const_iteratorINS_21__hash_const_iteratorIPNS_11__hash_nodeINS_17__hash_value_typeINS_12basic_stringIcNS_11char_traitsIcEENS_9allocatorIcEEEEP4CityEEPvEEEEEC2B8ue170006ESG_, symObjAddr: 0x9C2C, symBinAddr: 0x10000BCCC, symSize: 0x20 }
  - { offsetInCU: 0x1B781, offset: 0x1B781, size: 0x8, addend: 0x0, symName: __ZNSt12out_of_rangeC1B8ue170006EPKc, symObjAddr: 0x9C7C, symBinAddr: 0x10000BD1C, symSize: 0x34 }
  - { offsetInCU: 0x1B7B8, offset: 0x1B7B8, size: 0x8, addend: 0x0, symName: __ZNSt12out_of_rangeC2B8ue170006EPKc, symObjAddr: 0x9CB0, symBinAddr: 0x10000BD50, symSize: 0x4C }
  - { offsetInCU: 0x1B7EF, offset: 0x1B7EF, size: 0x8, addend: 0x0, symName: __ZNSt3__114pointer_traitsIPKNS_4pairIKNS_12basic_stringIcNS_11char_traitsIcEENS_9allocatorIcEEEEP4CityEEE10pointer_toB8ue170006ERSC_, symObjAddr: 0x9CFC, symBinAddr: 0x10000BD9C, symSize: 0x14 }
  - { offsetInCU: 0x1B812, offset: 0x1B812, size: 0x8, addend: 0x0, symName: __ZNKSt3__121__hash_const_iteratorIPNS_11__hash_nodeINS_17__hash_value_typeINS_12basic_stringIcNS_11char_traitsIcEENS_9allocatorIcEEEEP4CityEEPvEEEptB8ue170006Ev, symObjAddr: 0x9D10, symBinAddr: 0x10000BDB0, symSize: 0x30 }
  - { offsetInCU: 0x1B837, offset: 0x1B837, size: 0x8, addend: 0x0, symName: __ZNSt3__114pointer_traitsIPKNS_17__hash_value_typeINS_12basic_stringIcNS_11char_traitsIcEENS_9allocatorIcEEEEP4CityEEE10pointer_toB8ue170006ERSB_, symObjAddr: 0x9D40, symBinAddr: 0x10000BDE0, symSize: 0x14 }
  - { offsetInCU: 0x26, offset: 0x1BACD, size: 0x8, addend: 0x0, symName: __ZN6Player8westInitEv, symObjAddr: 0x0, symBinAddr: 0x10000BDF4, symSize: 0x34 }
  - { offsetInCU: 0x8F06, offset: 0x249AD, size: 0x8, addend: 0x0, symName: __ZN6Player8westInitEv, symObjAddr: 0x0, symBinAddr: 0x10000BDF4, symSize: 0x34 }
  - { offsetInCU: 0x8F2D, offset: 0x249D4, size: 0x8, addend: 0x0, symName: __ZN6Player8axisInitEv, symObjAddr: 0x34, symBinAddr: 0x10000BE28, symSize: 0x34 }
  - { offsetInCU: 0x8F54, offset: 0x249FB, size: 0x8, addend: 0x0, symName: __ZN6Player8ussrInitEv, symObjAddr: 0x68, symBinAddr: 0x10000BE5C, symSize: 0x34 }
  - { offsetInCU: 0x8F7B, offset: 0x24A22, size: 0x8, addend: 0x0, symName: __ZNK6Player5printEv, symObjAddr: 0x9C, symBinAddr: 0x10000BE90, symSize: 0x5C }
  - { offsetInCU: 0x52, offset: 0x24AA5, size: 0x8, addend: 0x0, symName: __ZL15FIREPOWER_TABLE, symObjAddr: 0x11E48, symBinAddr: 0x100026A60, symSize: 0x0 }
  - { offsetInCU: 0x13ED7, offset: 0x3892A, size: 0x8, addend: 0x0, symName: __ZNSt3__1rsB8ue170006IcNS_11char_traitsIcEENS_9allocatorIcEEEERNS_13basic_istreamIT_T0_EES9_RNS_12basic_stringIS6_S7_T1_EE, symObjAddr: 0xCB4, symBinAddr: 0x10000CB8C, symSize: 0x31C }
  - { offsetInCU: 0x13FA8, offset: 0x389FB, size: 0x8, addend: 0x0, symName: __ZNSt3__17getlineB8ue170006IcNS_11char_traitsIcEENS_9allocatorIcEEEERNS_13basic_istreamIT_T0_EES9_RNS_12basic_stringIS6_S7_T1_EE, symObjAddr: 0x11CC, symBinAddr: 0x10000D080, symSize: 0x5C }
  - { offsetInCU: 0x1438A, offset: 0x38DDD, size: 0x8, addend: 0x0, symName: __ZNSt3__1neB8ue170006ERKNS_19__hash_map_iteratorINS_15__hash_iteratorIPNS_11__hash_nodeINS_17__hash_value_typeINS_12basic_stringIcNS_11char_traitsIcEENS_9allocatorIcEEEEP4CityEEPvEEEEEESJ_, symObjAddr: 0x16EC, symBinAddr: 0x10000D5A0, symSize: 0x30 }
  - { offsetInCU: 0x145D3, offset: 0x39026, size: 0x8, addend: 0x0, symName: __ZNSt3__1neB8ue170006IPP4CityEEbRKNS_11__wrap_iterIT_EES8_, symObjAddr: 0x3268, symBinAddr: 0x10000F08C, symSize: 0x34 }
  - { offsetInCU: 0x146F6, offset: 0x39149, size: 0x8, addend: 0x0, symName: __ZNSt3__19make_pairB8ue170006INS_12basic_stringIcNS_11char_traitsIcEENS_9allocatorIcEEEERP4CityEENS_4pairINS_18__unwrap_ref_decayIT_E4typeENSB_IT0_E4typeEEEOSC_OSF_, symObjAddr: 0x3F64, symBinAddr: 0x10000FC64, symSize: 0x40 }
  - { offsetInCU: 0x1474E, offset: 0x391A1, size: 0x8, addend: 0x0, symName: __ZNSt3__116__is_hash_power2B8ue170006Em, symObjAddr: 0x4BE4, symBinAddr: 0x100010714, symSize: 0x50 }
  - { offsetInCU: 0x14798, offset: 0x391EB, size: 0x8, addend: 0x0, symName: __ZNSt3__116__next_hash_pow2B8ue170006Em, symObjAddr: 0x6BA4, symBinAddr: 0x100011364, symSize: 0x6C }
  - { offsetInCU: 0x147C4, offset: 0x39217, size: 0x8, addend: 0x0, symName: __ZNSt3__112__libcpp_clzB8ue170006Em, symObjAddr: 0x6FC8, symBinAddr: 0x10001170C, symSize: 0x1C }
  - { offsetInCU: 0x147F0, offset: 0x39243, size: 0x8, addend: 0x0, symName: __ZNSt3__1miB8ue170006IPKP4CityPS2_EEDTmicldtfp_4baseEcldtfp0_4baseEERKNS_11__wrap_iterIT_EERKNS7_IT0_EE, symObjAddr: 0x7478, symBinAddr: 0x100011B34, symSize: 0x48 }
  - { offsetInCU: 0x1486F, offset: 0x392C2, size: 0x8, addend: 0x0, symName: __ZNSt3__113move_backwardB8ue170006IPP4CityS3_EET0_T_S5_S4_, symObjAddr: 0x7DB8, symBinAddr: 0x1000121E8, symSize: 0x40 }
  - { offsetInCU: 0x148C9, offset: 0x3931C, size: 0x8, addend: 0x0, symName: __ZNSt3__115__move_backwardB8ue170006INS_17_ClassicAlgPolicyEPP4CityS4_S4_EENS_4pairIT0_T2_EES6_T1_S7_, symObjAddr: 0x7E20, symBinAddr: 0x100012250, symSize: 0x44 }
  - { offsetInCU: 0x14935, offset: 0x39388, size: 0x8, addend: 0x0, symName: __ZNSt3__123__dispatch_copy_or_moveB8ue170006INS_17_ClassicAlgPolicyENS_20__move_backward_loopIS1_EENS_23__move_backward_trivialEPP4CityS7_S7_EENS_4pairIT2_T4_EES9_T3_SA_, symObjAddr: 0x7E64, symBinAddr: 0x100012294, symSize: 0x44 }
  - { offsetInCU: 0x149B3, offset: 0x39406, size: 0x8, addend: 0x0, symName: __ZNSt3__121__unwrap_and_dispatchB8ue170006INS_10__overloadINS_20__move_backward_loopINS_17_ClassicAlgPolicyEEENS_23__move_backward_trivialEEEPP4CityS9_S9_Li0EEENS_4pairIT0_T2_EESB_T1_SC_, symObjAddr: 0x7EA8, symBinAddr: 0x1000122D8, symSize: 0xB4 }
  - { offsetInCU: 0x14A41, offset: 0x39494, size: 0x8, addend: 0x0, symName: __ZNSt3__114__unwrap_rangeB8ue170006IPP4CityS3_EENS_4pairIT0_S5_EET_S7_, symObjAddr: 0x7F5C, symBinAddr: 0x10001238C, symSize: 0x60 }
  - { offsetInCU: 0x14C41, offset: 0x39694, size: 0x8, addend: 0x0, symName: __ZNSt3__113__unwrap_iterB8ue170006IPP4CityNS_18__unwrap_iter_implIS3_Lb1EEELi0EEEDTclsrT0_8__unwrapclsr3stdE7declvalIT_EEEES7_, symObjAddr: 0x8004, symBinAddr: 0x100012434, symSize: 0x24 }
  - { offsetInCU: 0x14C85, offset: 0x396D8, size: 0x8, addend: 0x0, symName: __ZNSt3__19make_pairB8ue170006IPP4CityS3_EENS_4pairINS_18__unwrap_ref_decayIT_E4typeENS5_IT0_E4typeEEEOS6_OS9_, symObjAddr: 0x8028, symBinAddr: 0x100012458, symSize: 0x38 }
  - { offsetInCU: 0x14CD4, offset: 0x39727, size: 0x8, addend: 0x0, symName: __ZNSt3__114__rewrap_rangeB8ue170006IPP4CityS3_EET_S4_T0_, symObjAddr: 0x8060, symBinAddr: 0x100012490, symSize: 0x2C }
  - { offsetInCU: 0x14D20, offset: 0x39773, size: 0x8, addend: 0x0, symName: __ZNSt3__113__rewrap_iterB8ue170006IPP4CityS3_NS_18__unwrap_iter_implIS3_Lb1EEEEET_S6_T0_, symObjAddr: 0x808C, symBinAddr: 0x1000124BC, symSize: 0x3C }
  - { offsetInCU: 0x14D75, offset: 0x397C8, size: 0x8, addend: 0x0, symName: __ZNSt3__128__copy_backward_trivial_implB8ue170006IP4CityS2_EENS_4pairIPT_PT0_EES5_S5_S7_, symObjAddr: 0x80C8, symBinAddr: 0x1000124F8, symSize: 0x90 }
  - { offsetInCU: 0x14DDD, offset: 0x39830, size: 0x8, addend: 0x0, symName: __ZNSt3__119__constexpr_memmoveB8ue170006IP4CityS2_Li0EEEPT_S4_PT0_NS_15__element_countE, symObjAddr: 0x8158, symBinAddr: 0x100012588, symSize: 0x64 }
  - { offsetInCU: 0x14E4B, offset: 0x3989E, size: 0x8, addend: 0x0, symName: __ZNSt3__19make_pairB8ue170006IRPP4CityS4_EENS_4pairINS_18__unwrap_ref_decayIT_E4typeENS6_IT0_E4typeEEEOS7_OSA_, symObjAddr: 0x81BC, symBinAddr: 0x1000125EC, symSize: 0x38 }
  - { offsetInCU: 0x14EED, offset: 0x39940, size: 0x8, addend: 0x0, symName: __ZNSt3__14moveB8ue170006IPP4CityS3_EET0_T_S5_S4_, symObjAddr: 0x8978, symBinAddr: 0x100012778, symSize: 0x40 }
  - { offsetInCU: 0x14F47, offset: 0x3999A, size: 0x8, addend: 0x0, symName: __ZNSt3__16__moveB8ue170006INS_17_ClassicAlgPolicyEPP4CityS4_S4_EENS_4pairIT0_T2_EES6_T1_S7_, symObjAddr: 0x8A88, symBinAddr: 0x10001284C, symSize: 0x44 }
  - { offsetInCU: 0x14FB3, offset: 0x39A06, size: 0x8, addend: 0x0, symName: __ZNSt3__123__dispatch_copy_or_moveB8ue170006INS_17_ClassicAlgPolicyENS_11__move_loopIS1_EENS_14__move_trivialEPP4CityS7_S7_EENS_4pairIT2_T4_EES9_T3_SA_, symObjAddr: 0x8ACC, symBinAddr: 0x100012890, symSize: 0x44 }
  - { offsetInCU: 0x15031, offset: 0x39A84, size: 0x8, addend: 0x0, symName: __ZNSt3__121__unwrap_and_dispatchB8ue170006INS_10__overloadINS_11__move_loopINS_17_ClassicAlgPolicyEEENS_14__move_trivialEEEPP4CityS9_S9_Li0EEENS_4pairIT0_T2_EESB_T1_SC_, symObjAddr: 0x8B10, symBinAddr: 0x1000128D4, symSize: 0xB4 }
  - { offsetInCU: 0x15141, offset: 0x39B94, size: 0x8, addend: 0x0, symName: __ZNSt3__119__copy_trivial_implB8ue170006IP4CityS2_EENS_4pairIPT_PT0_EES5_S5_S7_, symObjAddr: 0x8C0C, symBinAddr: 0x1000129D0, symSize: 0x80 }
  - { offsetInCU: 0x151A9, offset: 0x39BFC, size: 0x8, addend: 0x0, symName: __ZNSt3__19make_pairB8ue170006IRPP4CityS3_EENS_4pairINS_18__unwrap_ref_decayIT_E4typeENS6_IT0_E4typeEEEOS7_OSA_, symObjAddr: 0x8C8C, symBinAddr: 0x100012A50, symSize: 0x38 }
  - { offsetInCU: 0x151F8, offset: 0x39C4B, size: 0x8, addend: 0x0, symName: __ZNSt3__18distanceB8ue170006INS_13move_iteratorIPP4CityEEEENS_15iterator_traitsIT_E15difference_typeES7_S7_, symObjAddr: 0x8E10, symBinAddr: 0x100012BD4, symSize: 0x3C }
  - { offsetInCU: 0x1523B, offset: 0x39C8E, size: 0x8, addend: 0x0, symName: __ZNSt3__110__distanceB8ue170006INS_13move_iteratorIPP4CityEEEENS_15iterator_traitsIT_E15difference_typeES7_S7_NS_26random_access_iterator_tagE, symObjAddr: 0x8F50, symBinAddr: 0x100012C48, symSize: 0x30 }
  - { offsetInCU: 0x15289, offset: 0x39CDC, size: 0x8, addend: 0x0, symName: __ZNSt3__1miB8ue170006IPP4CityS3_EEDTmicldtfp_4baseEcldtfp0_4baseEERKNS_13move_iteratorIT_EERKNS5_IT0_EE, symObjAddr: 0x8F80, symBinAddr: 0x100012C78, symSize: 0x48 }
  - { offsetInCU: 0x152D8, offset: 0x39D2B, size: 0x8, addend: 0x0, symName: __ZNSt3__142__uninitialized_allocator_move_if_noexceptB8ue170006INS_9allocatorIP4CityEEPS3_S5_S3_vEET1_RT_T0_S9_S6_, symObjAddr: 0x917C, symBinAddr: 0x100012CF8, symSize: 0x38 }
  - { offsetInCU: 0x15354, offset: 0x39DA7, size: 0x8, addend: 0x0, symName: __ZNSt3__1eqB8ue170006ERKNS_19__hash_map_iteratorINS_15__hash_iteratorIPNS_11__hash_nodeINS_17__hash_value_typeINS_12basic_stringIcNS_11char_traitsIcEENS_9allocatorIcEEEEP4CityEEPvEEEEEESJ_, symObjAddr: 0x9F18, symBinAddr: 0x100013080, symSize: 0x30 }
  - { offsetInCU: 0x15391, offset: 0x39DE4, size: 0x8, addend: 0x0, symName: __ZNSt3__1eqB8ue170006ERKNS_15__hash_iteratorIPNS_11__hash_nodeINS_17__hash_value_typeINS_12basic_stringIcNS_11char_traitsIcEENS_9allocatorIcEEEEP4CityEEPvEEEESH_, symObjAddr: 0xA1B4, symBinAddr: 0x1000132B8, symSize: 0x30 }
  - { offsetInCU: 0x15434, offset: 0x39E87, size: 0x8, addend: 0x0, symName: __ZNSt3__1neB8ue170006ERKNS_16__deque_iteratorImPmRmPS1_lLl512EEES6_, symObjAddr: 0xA924, symBinAddr: 0x100013958, symSize: 0x34 }
  - { offsetInCU: 0x15471, offset: 0x39EC4, size: 0x8, addend: 0x0, symName: __ZNSt3__1eqB8ue170006ERKNS_16__deque_iteratorImPmRmPS1_lLl512EEES6_, symObjAddr: 0xAC5C, symBinAddr: 0x100013C90, symSize: 0x30 }
  - { offsetInCU: 0x154AE, offset: 0x39F01, size: 0x8, addend: 0x0, symName: __ZNSt3__112__to_addressB8ue170006ImEEPT_S2_, symObjAddr: 0xB2D8, symBinAddr: 0x10001430C, symSize: 0x14 }
  - { offsetInCU: 0x154E3, offset: 0x39F36, size: 0x8, addend: 0x0, symName: __ZNSt3__112__to_addressB8ue170006IPmEEPT_S3_, symObjAddr: 0xB6A4, symBinAddr: 0x1000146D8, symSize: 0x14 }
  - { offsetInCU: 0x15518, offset: 0x39F6B, size: 0x8, addend: 0x0, symName: __ZNSt3__1eqB8ue170006IPP4CityEEbRKNS_11__wrap_iterIT_EES8_, symObjAddr: 0xB7A4, symBinAddr: 0x1000147D8, symSize: 0x48 }
  - { offsetInCU: 0x1558E, offset: 0x39FE1, size: 0x8, addend: 0x0, symName: __ZNSt3__19use_facetB8ue170006INS_5ctypeIcEEEERKT_RKNS_6localeE, symObjAddr: 0xC764, symBinAddr: 0x100015628, symSize: 0x2C }
  - { offsetInCU: 0x1596D, offset: 0x3A3C0, size: 0x8, addend: 0x0, symName: __ZNSt3__17getlineB8ue170006IcNS_11char_traitsIcEENS_9allocatorIcEEEERNS_13basic_istreamIT_T0_EES9_RNS_12basic_stringIS6_S7_T1_EES6_, symObjAddr: 0xCBB0, symBinAddr: 0x100015A74, symSize: 0x234 }
  - { offsetInCU: 0x15A4B, offset: 0x3A49E, size: 0x8, addend: 0x0, symName: __ZNSt3__1neB8ue170006ERKNS_25__hash_map_const_iteratorINS_21__hash_const_iteratorIPNS_11__hash_nodeINS_17__hash_value_typeINS_12basic_stringIcNS_11char_traitsIcEENS_9allocatorIcEEEEP4CityEEPvEEEEEESJ_, symObjAddr: 0xD9E8, symBinAddr: 0x100016814, symSize: 0x30 }
  - { offsetInCU: 0x15A88, offset: 0x3A4DB, size: 0x8, addend: 0x0, symName: __ZNSt3__1neB8ue170006ERKNS_21__hash_const_iteratorIPNS_11__hash_nodeINS_17__hash_value_typeINS_12basic_stringIcNS_11char_traitsIcEENS_9allocatorIcEEEEP4CityEEPvEEEESH_, symObjAddr: 0xDABC, symBinAddr: 0x1000168E8, symSize: 0x34 }
  - { offsetInCU: 0x15AC5, offset: 0x3A518, size: 0x8, addend: 0x0, symName: __ZNSt3__1neB8ue170006ERKNS_15__hash_iteratorIPNS_11__hash_nodeINS_17__hash_value_typeINS_12basic_stringIcNS_11char_traitsIcEENS_9allocatorIcEEEEP4CityEEPvEEEESH_, symObjAddr: 0xE358, symBinAddr: 0x10001703C, symSize: 0x34 }
  - { offsetInCU: 0x15F5B, offset: 0x3A9AE, size: 0x8, addend: 0x0, symName: __ZNSt3__14swapB8ue170006IPPmEENS_9enable_ifIXaasr21is_move_constructibleIT_EE5valuesr18is_move_assignableIS4_EE5valueEvE4typeERS4_S7_, symObjAddr: 0xF9A8, symBinAddr: 0x10001868C, symSize: 0x3C }
  - { offsetInCU: 0x15FAC, offset: 0x3A9FF, size: 0x8, addend: 0x0, symName: __ZNSt3__14moveB8ue170006IPPmS2_EET0_T_S4_S3_, symObjAddr: 0xFA8C, symBinAddr: 0x100018770, symSize: 0x40 }
  - { offsetInCU: 0x16006, offset: 0x3AA59, size: 0x8, addend: 0x0, symName: __ZNSt3__16__moveB8ue170006INS_17_ClassicAlgPolicyEPPmS3_S3_EENS_4pairIT0_T2_EES5_T1_S6_, symObjAddr: 0xFB94, symBinAddr: 0x100018878, symSize: 0x44 }
  - { offsetInCU: 0x16072, offset: 0x3AAC5, size: 0x8, addend: 0x0, symName: __ZNSt3__123__dispatch_copy_or_moveB8ue170006INS_17_ClassicAlgPolicyENS_11__move_loopIS1_EENS_14__move_trivialEPPmS6_S6_EENS_4pairIT2_T4_EES8_T3_S9_, symObjAddr: 0xFBD8, symBinAddr: 0x1000188BC, symSize: 0x44 }
  - { offsetInCU: 0x160F0, offset: 0x3AB43, size: 0x8, addend: 0x0, symName: __ZNSt3__121__unwrap_and_dispatchB8ue170006INS_10__overloadINS_11__move_loopINS_17_ClassicAlgPolicyEEENS_14__move_trivialEEEPPmS8_S8_Li0EEENS_4pairIT0_T2_EESA_T1_SB_, symObjAddr: 0xFC1C, symBinAddr: 0x100018900, symSize: 0xB4 }
  - { offsetInCU: 0x1617E, offset: 0x3ABD1, size: 0x8, addend: 0x0, symName: __ZNSt3__114__unwrap_rangeB8ue170006IPPmS2_EENS_4pairIT0_S4_EET_S6_, symObjAddr: 0xFCD0, symBinAddr: 0x1000189B4, symSize: 0x60 }
  - { offsetInCU: 0x162FC, offset: 0x3AD4F, size: 0x8, addend: 0x0, symName: __ZNSt3__113__unwrap_iterB8ue170006IPPmNS_18__unwrap_iter_implIS2_Lb1EEELi0EEEDTclsrT0_8__unwrapclsr3stdE7declvalIT_EEEES6_, symObjAddr: 0xFD78, symBinAddr: 0x100018A5C, symSize: 0x24 }
  - { offsetInCU: 0x16340, offset: 0x3AD93, size: 0x8, addend: 0x0, symName: __ZNSt3__19make_pairB8ue170006IPPmS2_EENS_4pairINS_18__unwrap_ref_decayIT_E4typeENS4_IT0_E4typeEEEOS5_OS8_, symObjAddr: 0xFD9C, symBinAddr: 0x100018A80, symSize: 0x38 }
  - { offsetInCU: 0x1638F, offset: 0x3ADE2, size: 0x8, addend: 0x0, symName: __ZNSt3__114__rewrap_rangeB8ue170006IPPmS2_EET_S3_T0_, symObjAddr: 0xFDD4, symBinAddr: 0x100018AB8, symSize: 0x2C }
  - { offsetInCU: 0x163DB, offset: 0x3AE2E, size: 0x8, addend: 0x0, symName: __ZNSt3__113__rewrap_iterB8ue170006IPPmS2_NS_18__unwrap_iter_implIS2_Lb1EEEEET_S5_T0_, symObjAddr: 0xFE00, symBinAddr: 0x100018AE4, symSize: 0x3C }
  - { offsetInCU: 0x16430, offset: 0x3AE83, size: 0x8, addend: 0x0, symName: __ZNSt3__119__copy_trivial_implB8ue170006IPmS1_EENS_4pairIPT_PT0_EES4_S4_S6_, symObjAddr: 0xFE3C, symBinAddr: 0x100018B20, symSize: 0x80 }
  - { offsetInCU: 0x16498, offset: 0x3AEEB, size: 0x8, addend: 0x0, symName: __ZNSt3__119__constexpr_memmoveB8ue170006IPmS1_Li0EEEPT_S3_PT0_NS_15__element_countE, symObjAddr: 0xFEBC, symBinAddr: 0x100018BA0, symSize: 0x64 }
  - { offsetInCU: 0x16506, offset: 0x3AF59, size: 0x8, addend: 0x0, symName: __ZNSt3__19make_pairB8ue170006IRPPmS2_EENS_4pairINS_18__unwrap_ref_decayIT_E4typeENS5_IT0_E4typeEEEOS6_OS9_, symObjAddr: 0xFF20, symBinAddr: 0x100018C04, symSize: 0x38 }
  - { offsetInCU: 0x165A8, offset: 0x3AFFB, size: 0x8, addend: 0x0, symName: __ZNSt3__18distanceB8ue170006INS_13move_iteratorIPPmEEEENS_15iterator_traitsIT_E15difference_typeES6_S6_, symObjAddr: 0x10188, symBinAddr: 0x100018E6C, symSize: 0x3C }
  - { offsetInCU: 0x165EB, offset: 0x3B03E, size: 0x8, addend: 0x0, symName: __ZNSt3__110__distanceB8ue170006INS_13move_iteratorIPPmEEEENS_15iterator_traitsIT_E15difference_typeES6_S6_NS_26random_access_iterator_tagE, symObjAddr: 0x1038C, symBinAddr: 0x100019070, symSize: 0x30 }
  - { offsetInCU: 0x16639, offset: 0x3B08C, size: 0x8, addend: 0x0, symName: __ZNSt3__1miB8ue170006IPPmS2_EEDTmicldtfp_4baseEcldtfp0_4baseEERKNS_13move_iteratorIT_EERKNS4_IT0_EE, symObjAddr: 0x103BC, symBinAddr: 0x1000190A0, symSize: 0x48 }
  - { offsetInCU: 0x16688, offset: 0x3B0DB, size: 0x8, addend: 0x0, symName: __ZNSt3__113move_backwardB8ue170006IPPmS2_EET0_T_S4_S3_, symObjAddr: 0x104F4, symBinAddr: 0x1000191D8, symSize: 0x40 }
  - { offsetInCU: 0x166E2, offset: 0x3B135, size: 0x8, addend: 0x0, symName: __ZNSt3__115__move_backwardB8ue170006INS_17_ClassicAlgPolicyEPPmS3_S3_EENS_4pairIT0_T2_EES5_T1_S6_, symObjAddr: 0x10534, symBinAddr: 0x100019218, symSize: 0x44 }
  - { offsetInCU: 0x1674E, offset: 0x3B1A1, size: 0x8, addend: 0x0, symName: __ZNSt3__123__dispatch_copy_or_moveB8ue170006INS_17_ClassicAlgPolicyENS_20__move_backward_loopIS1_EENS_23__move_backward_trivialEPPmS6_S6_EENS_4pairIT2_T4_EES8_T3_S9_, symObjAddr: 0x10578, symBinAddr: 0x10001925C, symSize: 0x44 }
  - { offsetInCU: 0x167CC, offset: 0x3B21F, size: 0x8, addend: 0x0, symName: __ZNSt3__121__unwrap_and_dispatchB8ue170006INS_10__overloadINS_20__move_backward_loopINS_17_ClassicAlgPolicyEEENS_23__move_backward_trivialEEEPPmS8_S8_Li0EEENS_4pairIT0_T2_EESA_T1_SB_, symObjAddr: 0x105BC, symBinAddr: 0x1000192A0, symSize: 0xB4 }
  - { offsetInCU: 0x1685A, offset: 0x3B2AD, size: 0x8, addend: 0x0, symName: __ZNSt3__128__copy_backward_trivial_implB8ue170006IPmS1_EENS_4pairIPT_PT0_EES4_S4_S6_, symObjAddr: 0x106B8, symBinAddr: 0x10001939C, symSize: 0x90 }
  - { offsetInCU: 0x168C2, offset: 0x3B315, size: 0x8, addend: 0x0, symName: __ZNSt3__19make_pairB8ue170006IRPPmS3_EENS_4pairINS_18__unwrap_ref_decayIT_E4typeENS5_IT0_E4typeEEEOS6_OS9_, symObjAddr: 0x10748, symBinAddr: 0x10001942C, symSize: 0x38 }
  - { offsetInCU: 0x16911, offset: 0x3B364, size: 0x8, addend: 0x0, symName: __ZNSt3__119__allocate_at_leastB8ue170006INS_9allocatorIPmEEEENS_19__allocation_resultINS_16allocator_traitsIT_E7pointerEEERS6_m, symObjAddr: 0x10900, symBinAddr: 0x1000195E4, symSize: 0x40 }
  - { offsetInCU: 0x16954, offset: 0x3B3A7, size: 0x8, addend: 0x0, symName: __ZNSt3__1miB8ue170006IPKP4CityS4_EEDTmicldtfp_4baseEcldtfp0_4baseEERKNS_11__wrap_iterIT_EERKNS6_IT0_EE, symObjAddr: 0x1121C, symBinAddr: 0x100019F00, symSize: 0x48 }
  - { offsetInCU: 0x17CDE, offset: 0x3C731, size: 0x8, addend: 0x0, symName: __ZNSt3__16vectorIP4CityNS_9allocatorIS2_EEE26__swap_out_circular_bufferERNS_14__split_bufferIS2_RS4_EEPS2_, symObjAddr: 0x7A38, symBinAddr: 0x100011FAC, symSize: 0x14C }
  - { offsetInCU: 0x1AAAB, offset: 0x3F4FE, size: 0x8, addend: 0x0, symName: __ZN6Runner7initMapENSt3__112basic_stringIcNS0_11char_traitsIcEENS0_9allocatorIcEEEE, symObjAddr: 0x0, symBinAddr: 0x10000BEEC, symSize: 0x9E4 }
  - { offsetInCU: 0x1ACB2, offset: 0x3F705, size: 0x8, addend: 0x0, symName: __ZNSt3__113basic_fstreamIcNS_11char_traitsIcEEEC1ERKNS_12basic_stringIcS2_NS_9allocatorIcEEEEj, symObjAddr: 0xAA0, symBinAddr: 0x10000C98C, symSize: 0x180 }
  - { offsetInCU: 0x1ACFB, offset: 0x3F74E, size: 0x8, addend: 0x0, symName: __ZNKSt3__113basic_fstreamIcNS_11char_traitsIcEEE7is_openEv, symObjAddr: 0xC20, symBinAddr: 0x10000CB0C, symSize: 0x2C }
  - { offsetInCU: 0x1AD21, offset: 0x3F774, size: 0x8, addend: 0x0, symName: __ZNKSt3__19basic_iosIcNS_11char_traitsIcEEE4failB8ue170006Ev, symObjAddr: 0xC4C, symBinAddr: 0x10000CB38, symSize: 0x28 }
  - { offsetInCU: 0x1AD46, offset: 0x3F799, size: 0x8, addend: 0x0, symName: __ZNSt3__112basic_stringIcNS_11char_traitsIcEENS_9allocatorIcEEEC1B8ue170006Ev, symObjAddr: 0xC88, symBinAddr: 0x10000CB60, symSize: 0x2C }
  - { offsetInCU: 0x1AD6F, offset: 0x3F7C2, size: 0x8, addend: 0x0, symName: __ZNSt3__112basic_stringIcNS_11char_traitsIcEENS_9allocatorIcEEEixB8ue170006Em, symObjAddr: 0xFD0, symBinAddr: 0x10000CEA8, symSize: 0x30 }
  - { offsetInCU: 0x1ADA3, offset: 0x3F7F6, size: 0x8, addend: 0x0, symName: __ZN4CityC1EmNSt3__112basic_stringIcNS0_11char_traitsIcEENS0_9allocatorIcEEEE8CityType9PowerTypemmm12ResourceType, symObjAddr: 0x1000, symBinAddr: 0x10000CED8, symSize: 0x78 }
  - { offsetInCU: 0x1AE3D, offset: 0x3F890, size: 0x8, addend: 0x0, symName: __ZN3Map7addCityEP4City, symObjAddr: 0x1078, symBinAddr: 0x10000CF50, symSize: 0x130 }
  - { offsetInCU: 0x1AE70, offset: 0x3F8C3, size: 0x8, addend: 0x0, symName: __ZNKSt3__112basic_stringIcNS_11char_traitsIcEENS_9allocatorIcEEE6substrB8ue170006Emm, symObjAddr: 0x1228, symBinAddr: 0x10000D0DC, symSize: 0x68 }
  - { offsetInCU: 0x1AF03, offset: 0x3F956, size: 0x8, addend: 0x0, symName: __ZNSt3__119basic_istringstreamIcNS_11char_traitsIcEENS_9allocatorIcEEEC1B8ue170006ERKNS_12basic_stringIcS2_S4_EEj, symObjAddr: 0x1290, symBinAddr: 0x10000D144, symSize: 0xFC }
  - { offsetInCU: 0x1AF4A, offset: 0x3F99D, size: 0x8, addend: 0x0, symName: __ZNSt3__112basic_stringIcNS_11char_traitsIcEENS_9allocatorIcEEEaSB8ue170006EOS5_, symObjAddr: 0x138C, symBinAddr: 0x10000D240, symSize: 0x34 }
  - { offsetInCU: 0x1AF83, offset: 0x3F9D6, size: 0x8, addend: 0x0, symName: __ZNSt3__119basic_istringstreamIcNS_11char_traitsIcEENS_9allocatorIcEEED1Ev, symObjAddr: 0x13C0, symBinAddr: 0x10000D274, symSize: 0x40 }
  - { offsetInCU: 0x1AFAF, offset: 0x3FA02, size: 0x8, addend: 0x0, symName: __ZNSt3__113basic_fstreamIcNS_11char_traitsIcEEED1Ev, symObjAddr: 0x1400, symBinAddr: 0x10000D2B4, symSize: 0x40 }
  - { offsetInCU: 0x1AFDA, offset: 0x3FA2D, size: 0x8, addend: 0x0, symName: __ZN6Runner9mapPlayerER6Player, symObjAddr: 0x1440, symBinAddr: 0x10000D2F4, symSize: 0x1F4 }
  - { offsetInCU: 0x1B098, offset: 0x3FAEB, size: 0x8, addend: 0x0, symName: __ZNK3Map9getCitiesEv, symObjAddr: 0x1634, symBinAddr: 0x10000D4E8, symSize: 0x14 }
  - { offsetInCU: 0x1B0BD, offset: 0x3FB10, size: 0x8, addend: 0x0, symName: __ZNSt3__113unordered_mapINS_12basic_stringIcNS_11char_traitsIcEENS_9allocatorIcEEEEP4CityNS_4hashIS6_EENS_8equal_toIS6_EENS4_INS_4pairIKS6_S8_EEEEEC1ERKSH_, symObjAddr: 0x1648, symBinAddr: 0x10000D4FC, symSize: 0x34 }
  - { offsetInCU: 0x1B0F7, offset: 0x3FB4A, size: 0x8, addend: 0x0, symName: __ZNSt3__113unordered_mapINS_12basic_stringIcNS_11char_traitsIcEENS_9allocatorIcEEEEP4CityNS_4hashIS6_EENS_8equal_toIS6_EENS4_INS_4pairIKS6_S8_EEEEE5beginB8ue170006Ev, symObjAddr: 0x167C, symBinAddr: 0x10000D530, symSize: 0x38 }
  - { offsetInCU: 0x1B11C, offset: 0x3FB6F, size: 0x8, addend: 0x0, symName: __ZNSt3__113unordered_mapINS_12basic_stringIcNS_11char_traitsIcEENS_9allocatorIcEEEEP4CityNS_4hashIS6_EENS_8equal_toIS6_EENS4_INS_4pairIKS6_S8_EEEEE3endB8ue170006Ev, symObjAddr: 0x16B4, symBinAddr: 0x10000D568, symSize: 0x38 }
  - { offsetInCU: 0x1B141, offset: 0x3FB94, size: 0x8, addend: 0x0, symName: __ZNKSt3__119__hash_map_iteratorINS_15__hash_iteratorIPNS_11__hash_nodeINS_17__hash_value_typeINS_12basic_stringIcNS_11char_traitsIcEENS_9allocatorIcEEEEP4CityEEPvEEEEEdeB8ue170006Ev, symObjAddr: 0x171C, symBinAddr: 0x10000D5D0, symSize: 0x28 }
  - { offsetInCU: 0x1B166, offset: 0x3FBB9, size: 0x8, addend: 0x0, symName: __ZNK6Player14getNationalityEv, symObjAddr: 0x1744, symBinAddr: 0x10000D5F8, symSize: 0x18 }
  - { offsetInCU: 0x1B18B, offset: 0x3FBDE, size: 0x8, addend: 0x0, symName: __ZNSt3__119__hash_map_iteratorINS_15__hash_iteratorIPNS_11__hash_nodeINS_17__hash_value_typeINS_12basic_stringIcNS_11char_traitsIcEENS_9allocatorIcEEEEP4CityEEPvEEEEEppB8ue170006Ev, symObjAddr: 0x175C, symBinAddr: 0x10000D610, symSize: 0x2C }
  - { offsetInCU: 0x1B1B0, offset: 0x3FC03, size: 0x8, addend: 0x0, symName: __ZNK6Player13getPopulationEv, symObjAddr: 0x1788, symBinAddr: 0x10000D63C, symSize: 0x18 }
  - { offsetInCU: 0x1B1D5, offset: 0x3FC28, size: 0x8, addend: 0x0, symName: __ZN6Player13setPopulationEm, symObjAddr: 0x17A0, symBinAddr: 0x10000D654, symSize: 0x20 }
  - { offsetInCU: 0x1B208, offset: 0x3FC5B, size: 0x8, addend: 0x0, symName: __ZNK6Player11getResourceEv, symObjAddr: 0x17C0, symBinAddr: 0x10000D674, symSize: 0x18 }
  - { offsetInCU: 0x1B22D, offset: 0x3FC80, size: 0x8, addend: 0x0, symName: __ZN6Player11setResourceEm, symObjAddr: 0x17D8, symBinAddr: 0x10000D68C, symSize: 0x20 }
  - { offsetInCU: 0x1B260, offset: 0x3FCB3, size: 0x8, addend: 0x0, symName: __ZNSt3__113unordered_mapINS_12basic_stringIcNS_11char_traitsIcEENS_9allocatorIcEEEEP4CityNS_4hashIS6_EENS_8equal_toIS6_EENS4_INS_4pairIKS6_S8_EEEEED1B8ue170006Ev, symObjAddr: 0x17F8, symBinAddr: 0x10000D6AC, symSize: 0x2C }
  - { offsetInCU: 0x1B289, offset: 0x3FCDC, size: 0x8, addend: 0x0, symName: __ZN6Runner4moveEP4UnitNSt3__112basic_stringIcNS2_11char_traitsIcEENS2_9allocatorIcEEEES8_, symObjAddr: 0x1824, symBinAddr: 0x10000D6D8, symSize: 0x21C }
  - { offsetInCU: 0x1B2EB, offset: 0x3FD3E, size: 0x8, addend: 0x0, symName: __ZN3MapixENSt3__112basic_stringIcNS0_11char_traitsIcEENS0_9allocatorIcEEEE, symObjAddr: 0x1A40, symBinAddr: 0x10000D8F4, symSize: 0x30 }
  - { offsetInCU: 0x1B31F, offset: 0x3FD72, size: 0x8, addend: 0x0, symName: __ZN4City10isConflictEv, symObjAddr: 0x1A70, symBinAddr: 0x10000D924, symSize: 0x8C }
  - { offsetInCU: 0x1B344, offset: 0x3FD97, size: 0x8, addend: 0x0, symName: __ZN6Runner9disengageEP4UnitNSt3__112basic_stringIcNS2_11char_traitsIcEENS2_9allocatorIcEEEES8_, symObjAddr: 0x1AFC, symBinAddr: 0x10000D9B0, symSize: 0x1D0 }
  - { offsetInCU: 0x1B397, offset: 0x3FDEA, size: 0x8, addend: 0x0, symName: __ZN6Runner7canMoveEP4UnitNSt3__112basic_stringIcNS2_11char_traitsIcEENS2_9allocatorIcEEEES8_, symObjAddr: 0x1CCC, symBinAddr: 0x10000DB80, symSize: 0x6FC }
  - { offsetInCU: 0x1B52A, offset: 0x3FF7D, size: 0x8, addend: 0x0, symName: __ZN6Runner12canDisengageEP4UnitNSt3__112basic_stringIcNS2_11char_traitsIcEENS2_9allocatorIcEEEES8_, symObjAddr: 0x23C8, symBinAddr: 0x10000E27C, symSize: 0x1CC }
  - { offsetInCU: 0x1B58B, offset: 0x3FFDE, size: 0x8, addend: 0x0, symName: __ZN3Map15checkConnectionENSt3__112basic_stringIcNS0_11char_traitsIcEENS0_9allocatorIcEEEES6_, symObjAddr: 0x2594, symBinAddr: 0x10000E448, symSize: 0xFC }
  - { offsetInCU: 0x1B5CE, offset: 0x40021, size: 0x8, addend: 0x0, symName: __ZN4City7isEnemyE8CityType, symObjAddr: 0x2690, symBinAddr: 0x10000E544, symSize: 0x180 }
  - { offsetInCU: 0x1B601, offset: 0x40054, size: 0x8, addend: 0x0, symName: __ZNK3Map12getAdjacencyEv, symObjAddr: 0x2810, symBinAddr: 0x10000E6C4, symSize: 0x18 }
  - { offsetInCU: 0x1B626, offset: 0x40079, size: 0x8, addend: 0x0, symName: __ZNK3Map10getNumCityEv, symObjAddr: 0x2828, symBinAddr: 0x10000E6DC, symSize: 0x24 }
  - { offsetInCU: 0x1B687, offset: 0x400DA, size: 0x8, addend: 0x0, symName: __ZNSt3__15queueImNS_5dequeImNS_9allocatorImEEEEEC1B8ue170006Ev, symObjAddr: 0x284C, symBinAddr: 0x10000E700, symSize: 0x2C }
  - { offsetInCU: 0x1B6B0, offset: 0x40103, size: 0x8, addend: 0x0, symName: __ZNSt3__15queueImNS_5dequeImNS_9allocatorImEEEEE4pushB8ue170006ERKm, symObjAddr: 0x28C8, symBinAddr: 0x10000E72C, symSize: 0x2C }
  - { offsetInCU: 0x1B6E4, offset: 0x40137, size: 0x8, addend: 0x0, symName: __ZNKSt3__15queueImNS_5dequeImNS_9allocatorImEEEEE5emptyB8ue170006Ev, symObjAddr: 0x28F4, symBinAddr: 0x10000E758, symSize: 0x28 }
  - { offsetInCU: 0x1B709, offset: 0x4015C, size: 0x8, addend: 0x0, symName: __ZNSt3__15queueImNS_5dequeImNS_9allocatorImEEEEE5frontB8ue170006Ev, symObjAddr: 0x291C, symBinAddr: 0x10000E780, symSize: 0x24 }
  - { offsetInCU: 0x1B72E, offset: 0x40181, size: 0x8, addend: 0x0, symName: __ZNSt3__15queueImNS_5dequeImNS_9allocatorImEEEEE3popB8ue170006Ev, symObjAddr: 0x2940, symBinAddr: 0x10000E7A4, symSize: 0x24 }
  - { offsetInCU: 0x1B753, offset: 0x401A6, size: 0x8, addend: 0x0, symName: __ZNSt3__15queueImNS_5dequeImNS_9allocatorImEEEEED1Ev, symObjAddr: 0x297C, symBinAddr: 0x10000E7C8, symSize: 0x2C }
  - { offsetInCU: 0x1B77F, offset: 0x401D2, size: 0x8, addend: 0x0, symName: __ZNK6Runner9printMemoEPA5_m, symObjAddr: 0x29A8, symBinAddr: 0x10000E7F4, symSize: 0x2F8 }
  - { offsetInCU: 0x1B7CC, offset: 0x4021F, size: 0x8, addend: 0x0, symName: __ZN6Runner11combatRoundEv, symObjAddr: 0x2CA0, symBinAddr: 0x10000EAEC, symSize: 0x36C }
  - { offsetInCU: 0x1B8C6, offset: 0x40319, size: 0x8, addend: 0x0, symName: __ZN6Runner10getBattlesE8CityType, symObjAddr: 0x300C, symBinAddr: 0x10000EE58, symSize: 0x1D4 }
  - { offsetInCU: 0x1B96C, offset: 0x403BF, size: 0x8, addend: 0x0, symName: __ZNSt3__16vectorIP4CityNS_9allocatorIS2_EEE5beginB8ue170006Ev, symObjAddr: 0x3208, symBinAddr: 0x10000F02C, symSize: 0x30 }
  - { offsetInCU: 0x1B992, offset: 0x403E5, size: 0x8, addend: 0x0, symName: __ZNSt3__16vectorIP4CityNS_9allocatorIS2_EEE3endB8ue170006Ev, symObjAddr: 0x3238, symBinAddr: 0x10000F05C, symSize: 0x30 }
  - { offsetInCU: 0x1B9B8, offset: 0x4040B, size: 0x8, addend: 0x0, symName: __ZNKSt3__111__wrap_iterIPP4CityEdeB8ue170006Ev, symObjAddr: 0x329C, symBinAddr: 0x10000F0C0, symSize: 0x18 }
  - { offsetInCU: 0x1B9DD, offset: 0x40430, size: 0x8, addend: 0x0, symName: __ZNSt3__111__wrap_iterIPP4CityEppB8ue170006Ev, symObjAddr: 0x32B4, symBinAddr: 0x10000F0D8, symSize: 0x20 }
  - { offsetInCU: 0x1BA02, offset: 0x40455, size: 0x8, addend: 0x0, symName: __ZNSt3__16vectorIP4CityNS_9allocatorIS2_EEEixB8ue170006Em, symObjAddr: 0x32D4, symBinAddr: 0x10000F0F8, symSize: 0x24 }
  - { offsetInCU: 0x1BA38, offset: 0x4048B, size: 0x8, addend: 0x0, symName: __ZN6Runner9seaCombatEP4City, symObjAddr: 0x32F8, symBinAddr: 0x10000F11C, symSize: 0x1C }
  - { offsetInCU: 0x1BA6F, offset: 0x404C2, size: 0x8, addend: 0x0, symName: __ZN6Runner10landCombatEP4City, symObjAddr: 0x3314, symBinAddr: 0x10000F138, symSize: 0x3D4 }
  - { offsetInCU: 0x1BC74, offset: 0x406C7, size: 0x8, addend: 0x0, symName: __ZNSt3__16vectorIP4CityNS_9allocatorIS2_EEE5eraseB8ue170006ENS_11__wrap_iterIPKS2_EE, symObjAddr: 0x36E8, symBinAddr: 0x10000F50C, symSize: 0x94 }
  - { offsetInCU: 0x1BCD1, offset: 0x40724, size: 0x8, addend: 0x0, symName: __ZNSt3__111__wrap_iterIPKP4CityEC1B8ue170006IPS2_EERKNS0_IT_EEPNS_9enable_ifIXsr14is_convertibleIS8_S4_EE5valueEvE4typeE, symObjAddr: 0x377C, symBinAddr: 0x10000F5A0, symSize: 0x3C }
  - { offsetInCU: 0x1BD1C, offset: 0x4076F, size: 0x8, addend: 0x0, symName: __ZNSt3__16vectorIP4CityNS_9allocatorIS2_EEED1B8ue170006Ev, symObjAddr: 0x37B8, symBinAddr: 0x10000F5DC, symSize: 0x2C }
  - { offsetInCU: 0x1BD45, offset: 0x40798, size: 0x8, addend: 0x0, symName: __ZN4City10numEnemiesE8CityType, symObjAddr: 0x37E4, symBinAddr: 0x10000F608, symSize: 0x14C }
  - { offsetInCU: 0x1BD78, offset: 0x407CB, size: 0x8, addend: 0x0, symName: __ZN4City8getEnemyE8CityType, symObjAddr: 0x3930, symBinAddr: 0x10000F754, symSize: 0xFC }
  - { offsetInCU: 0x1BDAB, offset: 0x407FE, size: 0x8, addend: 0x0, symName: __ZN4Dice4rollEv, symObjAddr: 0x3AD8, symBinAddr: 0x10000F850, symSize: 0x7C }
  - { offsetInCU: 0x1BDDE, offset: 0x40831, size: 0x8, addend: 0x0, symName: __ZNSt3__16vectorIP4CityNS_9allocatorIS2_EEEC1B8ue170006Ev, symObjAddr: 0x3B74, symBinAddr: 0x10000F8CC, symSize: 0x2C }
  - { offsetInCU: 0x1BE07, offset: 0x4085A, size: 0x8, addend: 0x0, symName: __ZNSt3__14pairIKNS_12basic_stringIcNS_11char_traitsIcEENS_9allocatorIcEEEEP4CityEC1B8ue170006ERKSA_, symObjAddr: 0x3BA0, symBinAddr: 0x10000F8F8, symSize: 0x34 }
  - { offsetInCU: 0x1BE3B, offset: 0x4088E, size: 0x8, addend: 0x0, symName: __ZNSt3__16vectorIP4CityNS_9allocatorIS2_EEE9push_backB8ue170006ERKS2_, symObjAddr: 0x3BFC, symBinAddr: 0x10000F92C, symSize: 0x6C }
  - { offsetInCU: 0x1BE70, offset: 0x408C3, size: 0x8, addend: 0x0, symName: __ZNSt3__14pairIKNS_12basic_stringIcNS_11char_traitsIcEENS_9allocatorIcEEEEP4CityED1Ev, symObjAddr: 0x3C68, symBinAddr: 0x10000F998, symSize: 0x2C }
  - { offsetInCU: 0x1BE9B, offset: 0x408EE, size: 0x8, addend: 0x0, symName: __ZN4CityC2EmNSt3__112basic_stringIcNS0_11char_traitsIcEENS0_9allocatorIcEEEE8CityType9PowerTypemmm12ResourceType, symObjAddr: 0x3C9C, symBinAddr: 0x10000F9C4, symSize: 0xF4 }
  - { offsetInCU: 0x1BF35, offset: 0x40988, size: 0x8, addend: 0x0, symName: __ZNSt3__16vectorIP4UnitNS_9allocatorIS2_EEEC1B8ue170006Ev, symObjAddr: 0x3D90, symBinAddr: 0x10000FAB8, symSize: 0x2C }
  - { offsetInCU: 0x1BF5E, offset: 0x409B1, size: 0x8, addend: 0x0, symName: __ZNSt3__16vectorIP4UnitNS_9allocatorIS2_EEEC2B8ue170006Ev, symObjAddr: 0x3DBC, symBinAddr: 0x10000FAE4, symSize: 0x4C }
  - { offsetInCU: 0x1BF91, offset: 0x409E4, size: 0x8, addend: 0x0, symName: __ZNSt3__117__compressed_pairIPP4UnitNS_9allocatorIS2_EEEC1B8ue170006IDnNS_18__default_init_tagEEEOT_OT0_, symObjAddr: 0x3E08, symBinAddr: 0x10000FB30, symSize: 0x3C }
  - { offsetInCU: 0x1BFE8, offset: 0x40A3B, size: 0x8, addend: 0x0, symName: __ZNSt3__117__compressed_pairIPP4UnitNS_9allocatorIS2_EEEC2B8ue170006IDnNS_18__default_init_tagEEEOT_OT0_, symObjAddr: 0x3E50, symBinAddr: 0x10000FB6C, symSize: 0x40 }
  - { offsetInCU: 0x1C03F, offset: 0x40A92, size: 0x8, addend: 0x0, symName: __ZNSt3__122__compressed_pair_elemINS_9allocatorIP4UnitEELi1ELb1EEC2B8ue170006ENS_18__default_init_tagE, symObjAddr: 0x3EAC, symBinAddr: 0x10000FBAC, symSize: 0x2C }
  - { offsetInCU: 0x1C073, offset: 0x40AC6, size: 0x8, addend: 0x0, symName: __ZNSt3__19allocatorIP4UnitEC2B8ue170006Ev, symObjAddr: 0x3ED8, symBinAddr: 0x10000FBD8, symSize: 0x2C }
  - { offsetInCU: 0x1C09C, offset: 0x40AEF, size: 0x8, addend: 0x0, symName: __ZNSt3__116__non_trivial_ifILb1ENS_9allocatorIP4UnitEEEC2B8ue170006Ev, symObjAddr: 0x3F04, symBinAddr: 0x10000FC04, symSize: 0x14 }
  - { offsetInCU: 0x1C0DE, offset: 0x40B31, size: 0x8, addend: 0x0, symName: __ZNSt3__113unordered_mapINS_12basic_stringIcNS_11char_traitsIcEENS_9allocatorIcEEEEP4CityNS_4hashIS6_EENS_8equal_toIS6_EENS4_INS_4pairIKS6_S8_EEEEE6insertB8ue170006INSD_IS6_S8_EEvEENSD_INS_19__hash_map_iteratorINS_15__hash_iteratorIPNS_11__hash_nodeINS_17__hash_value_typeIS6_S8_EEPvEEEEEEbEEOT_, symObjAddr: 0x3F18, symBinAddr: 0x10000FC18, symSize: 0x4C }
  - { offsetInCU: 0x1C11C, offset: 0x40B6F, size: 0x8, addend: 0x0, symName: __ZNK4City7getNameEv, symObjAddr: 0x3FA4, symBinAddr: 0x10000FCA4, symSize: 0x3C }
  - { offsetInCU: 0x1C141, offset: 0x40B94, size: 0x8, addend: 0x0, symName: __ZNSt3__14pairINS_12basic_stringIcNS_11char_traitsIcEENS_9allocatorIcEEEEP4CityED1Ev, symObjAddr: 0x3FE0, symBinAddr: 0x10000FCE0, symSize: 0x2C }
  - { offsetInCU: 0x1C16C, offset: 0x40BBF, size: 0x8, addend: 0x0, symName: __ZNSt3__16vectorIP4CityNS_9allocatorIS2_EEE6insertENS_11__wrap_iterIPKS2_EERS7_, symObjAddr: 0x400C, symBinAddr: 0x10000FD0C, symSize: 0x1FC }
  - { offsetInCU: 0x1C203, offset: 0x40C56, size: 0x8, addend: 0x0, symName: __ZNKSt3__111__wrap_iterIPP4CityEplB8ue170006El, symObjAddr: 0x4208, symBinAddr: 0x10000FF08, symSize: 0x3C }
  - { offsetInCU: 0x1C244, offset: 0x40C97, size: 0x8, addend: 0x0, symName: __ZNSt3__112__hash_tableINS_17__hash_value_typeINS_12basic_stringIcNS_11char_traitsIcEENS_9allocatorIcEEEEP4CityEENS_22__unordered_map_hasherIS7_SA_NS_4hashIS7_EENS_8equal_toIS7_EELb1EEENS_21__unordered_map_equalIS7_SA_SF_SD_Lb1EEENS5_ISA_EEE15__insert_uniqueB8ue170006INS_4pairIS7_S9_EEvEENSM_INS_15__hash_iteratorIPNS_11__hash_nodeISA_PvEEEEbEEOT_, symObjAddr: 0x4244, symBinAddr: 0x10000FF44, symSize: 0x3C }
  - { offsetInCU: 0x1C282, offset: 0x40CD5, size: 0x8, addend: 0x0, symName: __ZNSt3__14pairINS_19__hash_map_iteratorINS_15__hash_iteratorIPNS_11__hash_nodeINS_17__hash_value_typeINS_12basic_stringIcNS_11char_traitsIcEENS_9allocatorIcEEEEP4CityEEPvEEEEEEbEC1B8ue170006ISH_bLSE_0EEEONS0_IT_T0_EE, symObjAddr: 0x4280, symBinAddr: 0x10000FF80, symSize: 0x34 }
  - { offsetInCU: 0x1C2D2, offset: 0x40D25, size: 0x8, addend: 0x0, symName: __ZNSt3__112__hash_tableINS_17__hash_value_typeINS_12basic_stringIcNS_11char_traitsIcEENS_9allocatorIcEEEEP4CityEENS_22__unordered_map_hasherIS7_SA_NS_4hashIS7_EENS_8equal_toIS7_EELb1EEENS_21__unordered_map_equalIS7_SA_SF_SD_Lb1EEENS5_ISA_EEE16__emplace_uniqueB8ue170006INS_4pairIS7_S9_EEEENSM_INS_15__hash_iteratorIPNS_11__hash_nodeISA_PvEEEEbEEOT_, symObjAddr: 0x42B4, symBinAddr: 0x10000FFB4, symSize: 0x3C }
  - { offsetInCU: 0x1C30F, offset: 0x40D62, size: 0x8, addend: 0x0, symName: __ZNSt3__112__hash_tableINS_17__hash_value_typeINS_12basic_stringIcNS_11char_traitsIcEENS_9allocatorIcEEEEP4CityEENS_22__unordered_map_hasherIS7_SA_NS_4hashIS7_EENS_8equal_toIS7_EELb1EEENS_21__unordered_map_equalIS7_SA_SF_SD_Lb1EEENS5_ISA_EEE28__emplace_unique_extract_keyB8ue170006INS_4pairIS7_S9_EEEENSM_INS_15__hash_iteratorIPNS_11__hash_nodeISA_PvEEEEbEEOT_NS_23__extract_key_first_tagE, symObjAddr: 0x42F0, symBinAddr: 0x10000FFF0, symSize: 0x40 }
  - { offsetInCU: 0x1C357, offset: 0x40DAA, size: 0x8, addend: 0x0, symName: __ZNSt3__112__hash_tableINS_17__hash_value_typeINS_12basic_stringIcNS_11char_traitsIcEENS_9allocatorIcEEEEP4CityEENS_22__unordered_map_hasherIS7_SA_NS_4hashIS7_EENS_8equal_toIS7_EELb1EEENS_21__unordered_map_equalIS7_SA_SF_SD_Lb1EEENS5_ISA_EEE25__emplace_unique_key_argsIS7_JNS_4pairIS7_S9_EEEEENSM_INS_15__hash_iteratorIPNS_11__hash_nodeISA_PvEEEEbEERKT_DpOT0_, symObjAddr: 0x4330, symBinAddr: 0x100010030, symSize: 0x4D8 }
  - { offsetInCU: 0x1C436, offset: 0x40E89, size: 0x8, addend: 0x0, symName: __ZNSt3__112__hash_tableINS_17__hash_value_typeINS_12basic_stringIcNS_11char_traitsIcEENS_9allocatorIcEEEEP4CityEENS_22__unordered_map_hasherIS7_SA_NS_4hashIS7_EENS_8equal_toIS7_EELb1EEENS_21__unordered_map_equalIS7_SA_SF_SD_Lb1EEENS5_ISA_EEE13hash_functionB8ue170006Ev, symObjAddr: 0x4808, symBinAddr: 0x100010508, symSize: 0x28 }
  - { offsetInCU: 0x1C45B, offset: 0x40EAE, size: 0x8, addend: 0x0, symName: __ZNSt3__112__hash_tableINS_17__hash_value_typeINS_12basic_stringIcNS_11char_traitsIcEENS_9allocatorIcEEEEP4CityEENS_22__unordered_map_hasherIS7_SA_NS_4hashIS7_EENS_8equal_toIS7_EELb1EEENS_21__unordered_map_equalIS7_SA_SF_SD_Lb1EEENS5_ISA_EEE6key_eqB8ue170006Ev, symObjAddr: 0x4968, symBinAddr: 0x100010530, symSize: 0x28 }
  - { offsetInCU: 0x1C480, offset: 0x40ED3, size: 0x8, addend: 0x0, symName: __ZNSt3__112__hash_tableINS_17__hash_value_typeINS_12basic_stringIcNS_11char_traitsIcEENS_9allocatorIcEEEEP4CityEENS_22__unordered_map_hasherIS7_SA_NS_4hashIS7_EENS_8equal_toIS7_EELb1EEENS_21__unordered_map_equalIS7_SA_SF_SD_Lb1EEENS5_ISA_EEE21__construct_node_hashINS_4pairIS7_S9_EEJEEENS_10unique_ptrINS_11__hash_nodeISA_PvEENS_22__hash_node_destructorINS5_ISR_EEEEEEmOT_DpOT0_, symObjAddr: 0x49FC, symBinAddr: 0x100010558, symSize: 0x140 }
  - { offsetInCU: 0x1C4F1, offset: 0x40F44, size: 0x8, addend: 0x0, symName: __ZNSt3__112__hash_tableINS_17__hash_value_typeINS_12basic_stringIcNS_11char_traitsIcEENS_9allocatorIcEEEEP4CityEENS_22__unordered_map_hasherIS7_SA_NS_4hashIS7_EENS_8equal_toIS7_EELb1EEENS_21__unordered_map_equalIS7_SA_SF_SD_Lb1EEENS5_ISA_EEE4sizeB8ue170006Ev, symObjAddr: 0x4B3C, symBinAddr: 0x100010698, symSize: 0x28 }
  - { offsetInCU: 0x1C516, offset: 0x40F69, size: 0x8, addend: 0x0, symName: __ZNSt3__112__hash_tableINS_17__hash_value_typeINS_12basic_stringIcNS_11char_traitsIcEENS_9allocatorIcEEEEP4CityEENS_22__unordered_map_hasherIS7_SA_NS_4hashIS7_EENS_8equal_toIS7_EELb1EEENS_21__unordered_map_equalIS7_SA_SF_SD_Lb1EEENS5_ISA_EEE15max_load_factorB8ue170006Ev, symObjAddr: 0x4B64, symBinAddr: 0x1000106C0, symSize: 0x28 }
  - { offsetInCU: 0x1C53B, offset: 0x40F8E, size: 0x8, addend: 0x0, symName: __ZNSt3__112__hash_tableINS_17__hash_value_typeINS_12basic_stringIcNS_11char_traitsIcEENS_9allocatorIcEEEEP4CityEENS_22__unordered_map_hasherIS7_SA_NS_4hashIS7_EENS_8equal_toIS7_EELb1EEENS_21__unordered_map_equalIS7_SA_SF_SD_Lb1EEENS5_ISA_EEE15__rehash_uniqueB8ue170006Em, symObjAddr: 0x4B8C, symBinAddr: 0x1000106E8, symSize: 0x2C }
  - { offsetInCU: 0x1C56E, offset: 0x40FC1, size: 0x8, addend: 0x0, symName: __Z4ceilB8ue170006f, symObjAddr: 0x4C34, symBinAddr: 0x100010764, symSize: 0x18 }
  - { offsetInCU: 0x1C59D, offset: 0x40FF0, size: 0x8, addend: 0x0, symName: __ZNSt3__117__compressed_pairINS_16__hash_node_baseIPNS_11__hash_nodeINS_17__hash_value_typeINS_12basic_stringIcNS_11char_traitsIcEENS_9allocatorIcEEEEP4CityEEPvEEEENS7_ISE_EEE5firstB8ue170006Ev, symObjAddr: 0x4C4C, symBinAddr: 0x10001077C, symSize: 0x24 }
  - { offsetInCU: 0x1C5C2, offset: 0x41015, size: 0x8, addend: 0x0, symName: __ZNSt3__116__hash_node_baseIPNS_11__hash_nodeINS_17__hash_value_typeINS_12basic_stringIcNS_11char_traitsIcEENS_9allocatorIcEEEEP4CityEEPvEEE5__ptrB8ue170006Ev, symObjAddr: 0x4C70, symBinAddr: 0x1000107A0, symSize: 0x24 }
  - { offsetInCU: 0x1C5E7, offset: 0x4103A, size: 0x8, addend: 0x0, symName: __ZNKSt3__110unique_ptrINS_11__hash_nodeINS_17__hash_value_typeINS_12basic_stringIcNS_11char_traitsIcEENS_9allocatorIcEEEEP4CityEEPvEENS_22__hash_node_destructorINS6_ISD_EEEEEptB8ue170006Ev, symObjAddr: 0x4C94, symBinAddr: 0x1000107C4, symSize: 0x28 }
  - { offsetInCU: 0x1C60C, offset: 0x4105F, size: 0x8, addend: 0x0, symName: __ZNKSt3__110unique_ptrINS_11__hash_nodeINS_17__hash_value_typeINS_12basic_stringIcNS_11char_traitsIcEENS_9allocatorIcEEEEP4CityEEPvEENS_22__hash_node_destructorINS6_ISD_EEEEE3getB8ue170006Ev, symObjAddr: 0x4CBC, symBinAddr: 0x1000107EC, symSize: 0x28 }
  - { offsetInCU: 0x1C631, offset: 0x41084, size: 0x8, addend: 0x0, symName: __ZNSt3__110unique_ptrINS_11__hash_nodeINS_17__hash_value_typeINS_12basic_stringIcNS_11char_traitsIcEENS_9allocatorIcEEEEP4CityEEPvEENS_22__hash_node_destructorINS6_ISD_EEEEE7releaseB8ue170006Ev, symObjAddr: 0x4CE4, symBinAddr: 0x100010814, symSize: 0x44 }
  - { offsetInCU: 0x1C665, offset: 0x410B8, size: 0x8, addend: 0x0, symName: __ZNSt3__110unique_ptrINS_11__hash_nodeINS_17__hash_value_typeINS_12basic_stringIcNS_11char_traitsIcEENS_9allocatorIcEEEEP4CityEEPvEENS_22__hash_node_destructorINS6_ISD_EEEEED1B8ue170006Ev, symObjAddr: 0x4D28, symBinAddr: 0x100010858, symSize: 0x2C }
  - { offsetInCU: 0x1C68E, offset: 0x410E1, size: 0x8, addend: 0x0, symName: __ZNSt3__115__hash_iteratorIPNS_11__hash_nodeINS_17__hash_value_typeINS_12basic_stringIcNS_11char_traitsIcEENS_9allocatorIcEEEEP4CityEEPvEEEC1B8ue170006EPNS_16__hash_node_baseISE_EE, symObjAddr: 0x4D54, symBinAddr: 0x100010884, symSize: 0x34 }
  - { offsetInCU: 0x1C6CB, offset: 0x4111E, size: 0x8, addend: 0x0, symName: __ZNSt3__14pairINS_15__hash_iteratorIPNS_11__hash_nodeINS_17__hash_value_typeINS_12basic_stringIcNS_11char_traitsIcEENS_9allocatorIcEEEEP4CityEEPvEEEEbEC1B8ue170006ISG_RbLSD_0EEEOT_OT0_, symObjAddr: 0x4D88, symBinAddr: 0x1000108B8, symSize: 0x3C }
  - { offsetInCU: 0x1C728, offset: 0x4117B, size: 0x8, addend: 0x0, symName: __ZNSt3__117__compressed_pairImNS_22__unordered_map_hasherINS_12basic_stringIcNS_11char_traitsIcEENS_9allocatorIcEEEENS_17__hash_value_typeIS7_P4CityEENS_4hashIS7_EENS_8equal_toIS7_EELb1EEEE6secondB8ue170006Ev, symObjAddr: 0x4DC4, symBinAddr: 0x1000108F4, symSize: 0x24 }
  - { offsetInCU: 0x1C74D, offset: 0x411A0, size: 0x8, addend: 0x0, symName: __ZNSt3__122__compressed_pair_elemINS_22__unordered_map_hasherINS_12basic_stringIcNS_11char_traitsIcEENS_9allocatorIcEEEENS_17__hash_value_typeIS7_P4CityEENS_4hashIS7_EENS_8equal_toIS7_EELb1EEELi1ELb1EE5__getB8ue170006Ev, symObjAddr: 0x4DE8, symBinAddr: 0x100010918, symSize: 0x14 }
  - { offsetInCU: 0x1C772, offset: 0x411C5, size: 0x8, addend: 0x0, symName: __ZNSt3__117__compressed_pairIfNS_21__unordered_map_equalINS_12basic_stringIcNS_11char_traitsIcEENS_9allocatorIcEEEENS_17__hash_value_typeIS7_P4CityEENS_8equal_toIS7_EENS_4hashIS7_EELb1EEEE6secondB8ue170006Ev, symObjAddr: 0x5F14, symBinAddr: 0x10001092C, symSize: 0x24 }
  - { offsetInCU: 0x1C797, offset: 0x411EA, size: 0x8, addend: 0x0, symName: __ZNSt3__122__compressed_pair_elemINS_21__unordered_map_equalINS_12basic_stringIcNS_11char_traitsIcEENS_9allocatorIcEEEENS_17__hash_value_typeIS7_P4CityEENS_8equal_toIS7_EENS_4hashIS7_EELb1EEELi1ELb1EE5__getB8ue170006Ev, symObjAddr: 0x5F38, symBinAddr: 0x100010950, symSize: 0x14 }
  - { offsetInCU: 0x1C7BC, offset: 0x4120F, size: 0x8, addend: 0x0, symName: __ZNSt3__112__hash_tableINS_17__hash_value_typeINS_12basic_stringIcNS_11char_traitsIcEENS_9allocatorIcEEEEP4CityEENS_22__unordered_map_hasherIS7_SA_NS_4hashIS7_EENS_8equal_toIS7_EELb1EEENS_21__unordered_map_equalIS7_SA_SF_SD_Lb1EEENS5_ISA_EEE12__node_allocB8ue170006Ev, symObjAddr: 0x6124, symBinAddr: 0x100010964, symSize: 0x28 }
  - { offsetInCU: 0x1C7E1, offset: 0x41234, size: 0x8, addend: 0x0, symName: __ZNSt3__116allocator_traitsINS_9allocatorINS_11__hash_nodeINS_17__hash_value_typeINS_12basic_stringIcNS_11char_traitsIcEENS1_IcEEEEP4CityEEPvEEEEE8allocateB8ue170006ERSE_m, symObjAddr: 0x614C, symBinAddr: 0x10001098C, symSize: 0x2C }
  - { offsetInCU: 0x1C814, offset: 0x41267, size: 0x8, addend: 0x0, symName: __ZNSt3__122__hash_node_destructorINS_9allocatorINS_11__hash_nodeINS_17__hash_value_typeINS_12basic_stringIcNS_11char_traitsIcEENS1_IcEEEEP4CityEEPvEEEEEC1B8ue170006ERSE_b, symObjAddr: 0x6178, symBinAddr: 0x1000109B8, symSize: 0x48 }
  - { offsetInCU: 0x1C860, offset: 0x412B3, size: 0x8, addend: 0x0, symName: __ZNSt3__110unique_ptrINS_11__hash_nodeINS_17__hash_value_typeINS_12basic_stringIcNS_11char_traitsIcEENS_9allocatorIcEEEEP4CityEEPvEENS_22__hash_node_destructorINS6_ISD_EEEEEC1B8ue170006ILb1EvEEPSD_NS_16__dependent_typeINS_27__unique_ptr_deleter_sfinaeISG_EEXT_EE20__good_rval_ref_typeE, symObjAddr: 0x61C0, symBinAddr: 0x100010A00, symSize: 0x3C }
  - { offsetInCU: 0x1C8B0, offset: 0x41303, size: 0x8, addend: 0x0, symName: __ZNSt3__116allocator_traitsINS_9allocatorINS_11__hash_nodeINS_17__hash_value_typeINS_12basic_stringIcNS_11char_traitsIcEENS1_IcEEEEP4CityEEPvEEEEE9constructB8ue170006INS_4pairIKS8_SA_EEJNSH_IS8_SA_EEEvEEvRSE_PT_DpOT0_, symObjAddr: 0x61FC, symBinAddr: 0x100010A3C, symSize: 0x34 }
  - { offsetInCU: 0x1C907, offset: 0x4135A, size: 0x8, addend: 0x0, symName: __ZNSt3__122__hash_key_value_typesINS_17__hash_value_typeINS_12basic_stringIcNS_11char_traitsIcEENS_9allocatorIcEEEEP4CityEEE9__get_ptrB8ue170006ERSA_, symObjAddr: 0x6230, symBinAddr: 0x100010A70, symSize: 0x24 }
  - { offsetInCU: 0x1C92A, offset: 0x4137D, size: 0x8, addend: 0x0, symName: __ZNSt3__110unique_ptrINS_11__hash_nodeINS_17__hash_value_typeINS_12basic_stringIcNS_11char_traitsIcEENS_9allocatorIcEEEEP4CityEEPvEENS_22__hash_node_destructorINS6_ISD_EEEEE11get_deleterB8ue170006Ev, symObjAddr: 0x6254, symBinAddr: 0x100010A94, symSize: 0x24 }
  - { offsetInCU: 0x1C94F, offset: 0x413A2, size: 0x8, addend: 0x0, symName: __ZNSt3__117__compressed_pairINS_16__hash_node_baseIPNS_11__hash_nodeINS_17__hash_value_typeINS_12basic_stringIcNS_11char_traitsIcEENS_9allocatorIcEEEEP4CityEEPvEEEENS7_ISE_EEE6secondB8ue170006Ev, symObjAddr: 0x6278, symBinAddr: 0x100010AB8, symSize: 0x24 }
  - { offsetInCU: 0x1C974, offset: 0x413C7, size: 0x8, addend: 0x0, symName: __ZNSt3__122__compressed_pair_elemINS_9allocatorINS_11__hash_nodeINS_17__hash_value_typeINS_12basic_stringIcNS_11char_traitsIcEENS1_IcEEEEP4CityEEPvEEEELi1ELb1EE5__getB8ue170006Ev, symObjAddr: 0x629C, symBinAddr: 0x100010ADC, symSize: 0x14 }
  - { offsetInCU: 0x1C999, offset: 0x413EC, size: 0x8, addend: 0x0, symName: __ZNSt3__19allocatorINS_11__hash_nodeINS_17__hash_value_typeINS_12basic_stringIcNS_11char_traitsIcEENS0_IcEEEEP4CityEEPvEEE8allocateB8ue170006Em, symObjAddr: 0x62B0, symBinAddr: 0x100010AF0, symSize: 0x5C }
  - { offsetInCU: 0x1C9D6, offset: 0x41429, size: 0x8, addend: 0x0, symName: __ZNSt3__116allocator_traitsINS_9allocatorINS_11__hash_nodeINS_17__hash_value_typeINS_12basic_stringIcNS_11char_traitsIcEENS1_IcEEEEP4CityEEPvEEEEE8max_sizeB8ue170006ISE_vEEmRKSE_, symObjAddr: 0x630C, symBinAddr: 0x100010B4C, symSize: 0x24 }
  - { offsetInCU: 0x1CA04, offset: 0x41457, size: 0x8, addend: 0x0, symName: __ZNKSt3__19allocatorINS_11__hash_nodeINS_17__hash_value_typeINS_12basic_stringIcNS_11char_traitsIcEENS0_IcEEEEP4CityEEPvEEE8max_sizeB8ue170006Ev, symObjAddr: 0x638C, symBinAddr: 0x100010B70, symSize: 0x18 }
  - { offsetInCU: 0x1CA29, offset: 0x4147C, size: 0x8, addend: 0x0, symName: __ZNSt3__122__hash_node_destructorINS_9allocatorINS_11__hash_nodeINS_17__hash_value_typeINS_12basic_stringIcNS_11char_traitsIcEENS1_IcEEEEP4CityEEPvEEEEEC2B8ue170006ERSE_b, symObjAddr: 0x63C8, symBinAddr: 0x100010B88, symSize: 0x38 }
  - { offsetInCU: 0x1CA70, offset: 0x414C3, size: 0x8, addend: 0x0, symName: __ZNSt3__110unique_ptrINS_11__hash_nodeINS_17__hash_value_typeINS_12basic_stringIcNS_11char_traitsIcEENS_9allocatorIcEEEEP4CityEEPvEENS_22__hash_node_destructorINS6_ISD_EEEEEC2B8ue170006ILb1EvEEPSD_NS_16__dependent_typeINS_27__unique_ptr_deleter_sfinaeISG_EEXT_EE20__good_rval_ref_typeE, symObjAddr: 0x6400, symBinAddr: 0x100010BC0, symSize: 0x48 }
  - { offsetInCU: 0x1CAC0, offset: 0x41513, size: 0x8, addend: 0x0, symName: __ZNSt3__117__compressed_pairIPNS_11__hash_nodeINS_17__hash_value_typeINS_12basic_stringIcNS_11char_traitsIcEENS_9allocatorIcEEEEP4CityEEPvEENS_22__hash_node_destructorINS6_ISD_EEEEEC1B8ue170006IRSE_SH_EEOT_OT0_, symObjAddr: 0x6448, symBinAddr: 0x100010C08, symSize: 0x3C }
  - { offsetInCU: 0x1CB17, offset: 0x4156A, size: 0x8, addend: 0x0, symName: __ZNSt3__117__compressed_pairIPNS_11__hash_nodeINS_17__hash_value_typeINS_12basic_stringIcNS_11char_traitsIcEENS_9allocatorIcEEEEP4CityEEPvEENS_22__hash_node_destructorINS6_ISD_EEEEEC2B8ue170006IRSE_SH_EEOT_OT0_, symObjAddr: 0x6484, symBinAddr: 0x100010C44, symSize: 0x48 }
  - { offsetInCU: 0x1CB6E, offset: 0x415C1, size: 0x8, addend: 0x0, symName: __ZNSt3__122__compressed_pair_elemIPNS_11__hash_nodeINS_17__hash_value_typeINS_12basic_stringIcNS_11char_traitsIcEENS_9allocatorIcEEEEP4CityEEPvEELi0ELb0EEC2B8ue170006IRSE_vEEOT_, symObjAddr: 0x64CC, symBinAddr: 0x100010C8C, symSize: 0x24 }
  - { offsetInCU: 0x1CBAF, offset: 0x41602, size: 0x8, addend: 0x0, symName: __ZNSt3__122__compressed_pair_elemINS_22__hash_node_destructorINS_9allocatorINS_11__hash_nodeINS_17__hash_value_typeINS_12basic_stringIcNS_11char_traitsIcEENS2_IcEEEEP4CityEEPvEEEEEELi1ELb0EEC2B8ue170006ISG_vEEOT_, symObjAddr: 0x64F0, symBinAddr: 0x100010CB0, symSize: 0x24 }
  - { offsetInCU: 0x1CBF0, offset: 0x41643, size: 0x8, addend: 0x0, symName: __ZNSt3__19allocatorINS_11__hash_nodeINS_17__hash_value_typeINS_12basic_stringIcNS_11char_traitsIcEENS0_IcEEEEP4CityEEPvEEE9constructB8ue170006INS_4pairIKS7_S9_EEJNSF_IS7_S9_EEEEEvPT_DpOT0_, symObjAddr: 0x6514, symBinAddr: 0x100010CD4, symSize: 0x30 }
  - { offsetInCU: 0x1CC45, offset: 0x41698, size: 0x8, addend: 0x0, symName: __ZNSt3__14pairIKNS_12basic_stringIcNS_11char_traitsIcEENS_9allocatorIcEEEEP4CityEC1B8ue170006IS6_S9_LPv0EEEONS0_IT_T0_EE, symObjAddr: 0x6544, symBinAddr: 0x100010D04, symSize: 0x34 }
  - { offsetInCU: 0x1CC95, offset: 0x416E8, size: 0x8, addend: 0x0, symName: __ZNSt3__14pairIKNS_12basic_stringIcNS_11char_traitsIcEENS_9allocatorIcEEEEP4CityEC2B8ue170006IS6_S9_LPv0EEEONS0_IT_T0_EE, symObjAddr: 0x6578, symBinAddr: 0x100010D38, symSize: 0x40 }
  - { offsetInCU: 0x1CCE5, offset: 0x41738, size: 0x8, addend: 0x0, symName: __ZNSt3__112basic_stringIcNS_11char_traitsIcEENS_9allocatorIcEEEC1B8ue170006EOS5_, symObjAddr: 0x65B8, symBinAddr: 0x100010D78, symSize: 0x34 }
  - { offsetInCU: 0x1CD1D, offset: 0x41770, size: 0x8, addend: 0x0, symName: __ZNSt3__112basic_stringIcNS_11char_traitsIcEENS_9allocatorIcEEEC2B8ue170006EOS5_, symObjAddr: 0x65EC, symBinAddr: 0x100010DAC, symSize: 0x50 }
  - { offsetInCU: 0x1CD55, offset: 0x417A8, size: 0x8, addend: 0x0, symName: __ZNSt3__112basic_stringIcNS_11char_traitsIcEENS_9allocatorIcEEE14__default_initB8ue170006Ev, symObjAddr: 0x663C, symBinAddr: 0x100010DFC, symSize: 0x40 }
  - { offsetInCU: 0x1CD7A, offset: 0x417CD, size: 0x8, addend: 0x0, symName: __ZNSt3__117__compressed_pairINS_12basic_stringIcNS_11char_traitsIcEENS_9allocatorIcEEE5__repES5_E5firstB8ue170006Ev, symObjAddr: 0x667C, symBinAddr: 0x100010E3C, symSize: 0x24 }
  - { offsetInCU: 0x1CD9F, offset: 0x417F2, size: 0x8, addend: 0x0, symName: __ZNSt3__122__compressed_pair_elemINS_12basic_stringIcNS_11char_traitsIcEENS_9allocatorIcEEE5__repELi0ELb0EE5__getB8ue170006Ev, symObjAddr: 0x66A0, symBinAddr: 0x100010E60, symSize: 0x14 }
  - { offsetInCU: 0x1CDC4, offset: 0x41817, size: 0x8, addend: 0x0, symName: __ZNSt3__117__hash_value_typeINS_12basic_stringIcNS_11char_traitsIcEENS_9allocatorIcEEEEP4CityE11__get_valueB8ue170006Ev, symObjAddr: 0x66B4, symBinAddr: 0x100010E74, symSize: 0x14 }
  - { offsetInCU: 0x1CDE9, offset: 0x4183C, size: 0x8, addend: 0x0, symName: __ZNSt3__117__compressed_pairIPNS_11__hash_nodeINS_17__hash_value_typeINS_12basic_stringIcNS_11char_traitsIcEENS_9allocatorIcEEEEP4CityEEPvEENS_22__hash_node_destructorINS6_ISD_EEEEE6secondB8ue170006Ev, symObjAddr: 0x66C8, symBinAddr: 0x100010E88, symSize: 0x28 }
  - { offsetInCU: 0x1CE0E, offset: 0x41861, size: 0x8, addend: 0x0, symName: __ZNSt3__122__compressed_pair_elemINS_22__hash_node_destructorINS_9allocatorINS_11__hash_nodeINS_17__hash_value_typeINS_12basic_stringIcNS_11char_traitsIcEENS2_IcEEEEP4CityEEPvEEEEEELi1ELb0EE5__getB8ue170006Ev, symObjAddr: 0x66F0, symBinAddr: 0x100010EB0, symSize: 0x14 }
  - { offsetInCU: 0x1CE33, offset: 0x41886, size: 0x8, addend: 0x0, symName: __ZNSt3__117__compressed_pairImNS_22__unordered_map_hasherINS_12basic_stringIcNS_11char_traitsIcEENS_9allocatorIcEEEENS_17__hash_value_typeIS7_P4CityEENS_4hashIS7_EENS_8equal_toIS7_EELb1EEEE5firstB8ue170006Ev, symObjAddr: 0x6704, symBinAddr: 0x100010EC4, symSize: 0x24 }
  - { offsetInCU: 0x1CE58, offset: 0x418AB, size: 0x8, addend: 0x0, symName: __ZNSt3__122__compressed_pair_elemImLi0ELb0EE5__getB8ue170006Ev, symObjAddr: 0x6728, symBinAddr: 0x100010EE8, symSize: 0x14 }
  - { offsetInCU: 0x1CE7D, offset: 0x418D0, size: 0x8, addend: 0x0, symName: __ZNSt3__117__compressed_pairIfNS_21__unordered_map_equalINS_12basic_stringIcNS_11char_traitsIcEENS_9allocatorIcEEEENS_17__hash_value_typeIS7_P4CityEENS_8equal_toIS7_EENS_4hashIS7_EELb1EEEE5firstB8ue170006Ev, symObjAddr: 0x673C, symBinAddr: 0x100010EFC, symSize: 0x24 }
  - { offsetInCU: 0x1CEA2, offset: 0x418F5, size: 0x8, addend: 0x0, symName: __ZNSt3__122__compressed_pair_elemIfLi0ELb0EE5__getB8ue170006Ev, symObjAddr: 0x6760, symBinAddr: 0x100010F20, symSize: 0x14 }
  - { offsetInCU: 0x1CEC7, offset: 0x4191A, size: 0x8, addend: 0x0, symName: __ZNSt3__112__hash_tableINS_17__hash_value_typeINS_12basic_stringIcNS_11char_traitsIcEENS_9allocatorIcEEEEP4CityEENS_22__unordered_map_hasherIS7_SA_NS_4hashIS7_EENS_8equal_toIS7_EELb1EEENS_21__unordered_map_equalIS7_SA_SF_SD_Lb1EEENS5_ISA_EEE8__rehashILb1EEEvm, symObjAddr: 0x6774, symBinAddr: 0x100010F34, symSize: 0x1A8 }
  - { offsetInCU: 0x1CF15, offset: 0x41968, size: 0x8, addend: 0x0, symName: __ZNSt3__112__hash_tableINS_17__hash_value_typeINS_12basic_stringIcNS_11char_traitsIcEENS_9allocatorIcEEEEP4CityEENS_22__unordered_map_hasherIS7_SA_NS_4hashIS7_EENS_8equal_toIS7_EELb1EEENS_21__unordered_map_equalIS7_SA_SF_SD_Lb1EEENS5_ISA_EEE11__do_rehashILb1EEEvm, symObjAddr: 0x691C, symBinAddr: 0x1000110DC, symSize: 0x288 }
  - { offsetInCU: 0x1CFFA, offset: 0x41A4D, size: 0x8, addend: 0x0, symName: __ZNSt3__110unique_ptrIA_PNS_16__hash_node_baseIPNS_11__hash_nodeINS_17__hash_value_typeINS_12basic_stringIcNS_11char_traitsIcEENS_9allocatorIcEEEEP4CityEEPvEEEENS_25__bucket_list_deallocatorINS7_ISH_EEEEE11get_deleterB8ue170006Ev, symObjAddr: 0x6C10, symBinAddr: 0x1000113D0, symSize: 0x24 }
  - { offsetInCU: 0x1D01F, offset: 0x41A72, size: 0x8, addend: 0x0, symName: __ZNSt3__125__bucket_list_deallocatorINS_9allocatorIPNS_16__hash_node_baseIPNS_11__hash_nodeINS_17__hash_value_typeINS_12basic_stringIcNS_11char_traitsIcEENS1_IcEEEEP4CityEEPvEEEEEEE7__allocB8ue170006Ev, symObjAddr: 0x6C34, symBinAddr: 0x1000113F4, symSize: 0x24 }
  - { offsetInCU: 0x1D044, offset: 0x41A97, size: 0x8, addend: 0x0, symName: __ZNSt3__110unique_ptrIA_PNS_16__hash_node_baseIPNS_11__hash_nodeINS_17__hash_value_typeINS_12basic_stringIcNS_11char_traitsIcEENS_9allocatorIcEEEEP4CityEEPvEEEENS_25__bucket_list_deallocatorINS7_ISH_EEEEE5resetB8ue170006IPSH_EENS_9enable_ifIXsr28_CheckArrayPointerConversionIT_EE5valueEvE4typeESQ_, symObjAddr: 0x6C58, symBinAddr: 0x100011418, symSize: 0x78 }
  - { offsetInCU: 0x1D090, offset: 0x41AE3, size: 0x8, addend: 0x0, symName: __ZNSt3__116allocator_traitsINS_9allocatorIPNS_16__hash_node_baseIPNS_11__hash_nodeINS_17__hash_value_typeINS_12basic_stringIcNS_11char_traitsIcEENS1_IcEEEEP4CityEEPvEEEEEEE8allocateB8ue170006ERSI_m, symObjAddr: 0x6CD0, symBinAddr: 0x100011490, symSize: 0x2C }
  - { offsetInCU: 0x1D0C3, offset: 0x41B16, size: 0x8, addend: 0x0, symName: __ZNSt3__125__bucket_list_deallocatorINS_9allocatorIPNS_16__hash_node_baseIPNS_11__hash_nodeINS_17__hash_value_typeINS_12basic_stringIcNS_11char_traitsIcEENS1_IcEEEEP4CityEEPvEEEEEEE4sizeB8ue170006Ev, symObjAddr: 0x6CFC, symBinAddr: 0x1000114BC, symSize: 0x24 }
  - { offsetInCU: 0x1D0E8, offset: 0x41B3B, size: 0x8, addend: 0x0, symName: __ZNSt3__117__compressed_pairIPPNS_16__hash_node_baseIPNS_11__hash_nodeINS_17__hash_value_typeINS_12basic_stringIcNS_11char_traitsIcEENS_9allocatorIcEEEEP4CityEEPvEEEENS_25__bucket_list_deallocatorINS7_ISH_EEEEE6secondB8ue170006Ev, symObjAddr: 0x6D20, symBinAddr: 0x1000114E0, symSize: 0x28 }
  - { offsetInCU: 0x1D10D, offset: 0x41B60, size: 0x8, addend: 0x0, symName: __ZNSt3__122__compressed_pair_elemINS_25__bucket_list_deallocatorINS_9allocatorIPNS_16__hash_node_baseIPNS_11__hash_nodeINS_17__hash_value_typeINS_12basic_stringIcNS_11char_traitsIcEENS2_IcEEEEP4CityEEPvEEEEEEEELi1ELb0EE5__getB8ue170006Ev, symObjAddr: 0x6D48, symBinAddr: 0x100011508, symSize: 0x14 }
  - { offsetInCU: 0x1D132, offset: 0x41B85, size: 0x8, addend: 0x0, symName: __ZNSt3__117__compressed_pairImNS_9allocatorIPNS_16__hash_node_baseIPNS_11__hash_nodeINS_17__hash_value_typeINS_12basic_stringIcNS_11char_traitsIcEENS1_IcEEEEP4CityEEPvEEEEEEE6secondB8ue170006Ev, symObjAddr: 0x6D5C, symBinAddr: 0x10001151C, symSize: 0x24 }
  - { offsetInCU: 0x1D157, offset: 0x41BAA, size: 0x8, addend: 0x0, symName: __ZNSt3__122__compressed_pair_elemINS_9allocatorIPNS_16__hash_node_baseIPNS_11__hash_nodeINS_17__hash_value_typeINS_12basic_stringIcNS_11char_traitsIcEENS1_IcEEEEP4CityEEPvEEEEEELi1ELb1EE5__getB8ue170006Ev, symObjAddr: 0x6D80, symBinAddr: 0x100011540, symSize: 0x14 }
  - { offsetInCU: 0x1D17C, offset: 0x41BCF, size: 0x8, addend: 0x0, symName: __ZNSt3__117__compressed_pairIPPNS_16__hash_node_baseIPNS_11__hash_nodeINS_17__hash_value_typeINS_12basic_stringIcNS_11char_traitsIcEENS_9allocatorIcEEEEP4CityEEPvEEEENS_25__bucket_list_deallocatorINS7_ISH_EEEEE5firstB8ue170006Ev, symObjAddr: 0x6D94, symBinAddr: 0x100011554, symSize: 0x24 }
  - { offsetInCU: 0x1D1A1, offset: 0x41BF4, size: 0x8, addend: 0x0, symName: __ZNSt3__125__bucket_list_deallocatorINS_9allocatorIPNS_16__hash_node_baseIPNS_11__hash_nodeINS_17__hash_value_typeINS_12basic_stringIcNS_11char_traitsIcEENS1_IcEEEEP4CityEEPvEEEEEEEclB8ue170006EPSH_, symObjAddr: 0x6DB8, symBinAddr: 0x100011578, symSize: 0x58 }
  - { offsetInCU: 0x1D1D5, offset: 0x41C28, size: 0x8, addend: 0x0, symName: __ZNSt3__122__compressed_pair_elemIPPNS_16__hash_node_baseIPNS_11__hash_nodeINS_17__hash_value_typeINS_12basic_stringIcNS_11char_traitsIcEENS_9allocatorIcEEEEP4CityEEPvEEEELi0ELb0EE5__getB8ue170006Ev, symObjAddr: 0x6E10, symBinAddr: 0x1000115D0, symSize: 0x14 }
  - { offsetInCU: 0x1D1FA, offset: 0x41C4D, size: 0x8, addend: 0x0, symName: __ZNSt3__116allocator_traitsINS_9allocatorIPNS_16__hash_node_baseIPNS_11__hash_nodeINS_17__hash_value_typeINS_12basic_stringIcNS_11char_traitsIcEENS1_IcEEEEP4CityEEPvEEEEEEE10deallocateB8ue170006ERSI_PSH_m, symObjAddr: 0x6E24, symBinAddr: 0x1000115E4, symSize: 0x34 }
  - { offsetInCU: 0x1D23C, offset: 0x41C8F, size: 0x8, addend: 0x0, symName: __ZNSt3__19allocatorIPNS_16__hash_node_baseIPNS_11__hash_nodeINS_17__hash_value_typeINS_12basic_stringIcNS_11char_traitsIcEENS0_IcEEEEP4CityEEPvEEEEE10deallocateB8ue170006EPSG_m, symObjAddr: 0x6E58, symBinAddr: 0x100011618, symSize: 0x40 }
  - { offsetInCU: 0x1D27D, offset: 0x41CD0, size: 0x8, addend: 0x0, symName: __ZNSt3__19allocatorIPNS_16__hash_node_baseIPNS_11__hash_nodeINS_17__hash_value_typeINS_12basic_stringIcNS_11char_traitsIcEENS0_IcEEEEP4CityEEPvEEEEE8allocateB8ue170006Em, symObjAddr: 0x6F14, symBinAddr: 0x100011658, symSize: 0x58 }
  - { offsetInCU: 0x1D2BA, offset: 0x41D0D, size: 0x8, addend: 0x0, symName: __ZNSt3__116allocator_traitsINS_9allocatorIPNS_16__hash_node_baseIPNS_11__hash_nodeINS_17__hash_value_typeINS_12basic_stringIcNS_11char_traitsIcEENS1_IcEEEEP4CityEEPvEEEEEEE8max_sizeB8ue170006ISI_vEEmRKSI_, symObjAddr: 0x6F6C, symBinAddr: 0x1000116B0, symSize: 0x24 }
  - { offsetInCU: 0x1D2E8, offset: 0x41D3B, size: 0x8, addend: 0x0, symName: __ZNKSt3__19allocatorIPNS_16__hash_node_baseIPNS_11__hash_nodeINS_17__hash_value_typeINS_12basic_stringIcNS_11char_traitsIcEENS0_IcEEEEP4CityEEPvEEEEE8max_sizeB8ue170006Ev, symObjAddr: 0x6F90, symBinAddr: 0x1000116D4, symSize: 0x14 }
  - { offsetInCU: 0x1D30D, offset: 0x41D60, size: 0x8, addend: 0x0, symName: __ZNSt3__117__compressed_pairImNS_9allocatorIPNS_16__hash_node_baseIPNS_11__hash_nodeINS_17__hash_value_typeINS_12basic_stringIcNS_11char_traitsIcEENS1_IcEEEEP4CityEEPvEEEEEEE5firstB8ue170006Ev, symObjAddr: 0x6FA4, symBinAddr: 0x1000116E8, symSize: 0x24 }
  - { offsetInCU: 0x1D332, offset: 0x41D85, size: 0x8, addend: 0x0, symName: __ZNSt3__122__compressed_pair_elemINS_16__hash_node_baseIPNS_11__hash_nodeINS_17__hash_value_typeINS_12basic_stringIcNS_11char_traitsIcEENS_9allocatorIcEEEEP4CityEEPvEEEELi0ELb0EE5__getB8ue170006Ev, symObjAddr: 0x706C, symBinAddr: 0x100011728, symSize: 0x14 }
  - { offsetInCU: 0x1D357, offset: 0x41DAA, size: 0x8, addend: 0x0, symName: __ZNKSt3__117__compressed_pairIPNS_11__hash_nodeINS_17__hash_value_typeINS_12basic_stringIcNS_11char_traitsIcEENS_9allocatorIcEEEEP4CityEEPvEENS_22__hash_node_destructorINS6_ISD_EEEEE5firstB8ue170006Ev, symObjAddr: 0x7080, symBinAddr: 0x10001173C, symSize: 0x24 }
  - { offsetInCU: 0x1D37C, offset: 0x41DCF, size: 0x8, addend: 0x0, symName: __ZNKSt3__122__compressed_pair_elemIPNS_11__hash_nodeINS_17__hash_value_typeINS_12basic_stringIcNS_11char_traitsIcEENS_9allocatorIcEEEEP4CityEEPvEELi0ELb0EE5__getB8ue170006Ev, symObjAddr: 0x70A4, symBinAddr: 0x100011760, symSize: 0x14 }
  - { offsetInCU: 0x1D3A1, offset: 0x41DF4, size: 0x8, addend: 0x0, symName: __ZNSt3__117__compressed_pairIPNS_11__hash_nodeINS_17__hash_value_typeINS_12basic_stringIcNS_11char_traitsIcEENS_9allocatorIcEEEEP4CityEEPvEENS_22__hash_node_destructorINS6_ISD_EEEEE5firstB8ue170006Ev, symObjAddr: 0x70B8, symBinAddr: 0x100011774, symSize: 0x24 }
  - { offsetInCU: 0x1D3C6, offset: 0x41E19, size: 0x8, addend: 0x0, symName: __ZNSt3__122__compressed_pair_elemIPNS_11__hash_nodeINS_17__hash_value_typeINS_12basic_stringIcNS_11char_traitsIcEENS_9allocatorIcEEEEP4CityEEPvEELi0ELb0EE5__getB8ue170006Ev, symObjAddr: 0x70DC, symBinAddr: 0x100011798, symSize: 0x14 }
  - { offsetInCU: 0x1D3EB, offset: 0x41E3E, size: 0x8, addend: 0x0, symName: __ZNSt3__110unique_ptrINS_11__hash_nodeINS_17__hash_value_typeINS_12basic_stringIcNS_11char_traitsIcEENS_9allocatorIcEEEEP4CityEEPvEENS_22__hash_node_destructorINS6_ISD_EEEEED2B8ue170006Ev, symObjAddr: 0x70F0, symBinAddr: 0x1000117AC, symSize: 0x30 }
  - { offsetInCU: 0x1D414, offset: 0x41E67, size: 0x8, addend: 0x0, symName: __ZNSt3__110unique_ptrINS_11__hash_nodeINS_17__hash_value_typeINS_12basic_stringIcNS_11char_traitsIcEENS_9allocatorIcEEEEP4CityEEPvEENS_22__hash_node_destructorINS6_ISD_EEEEE5resetB8ue170006EPSD_, symObjAddr: 0x7120, symBinAddr: 0x1000117DC, symSize: 0x78 }
  - { offsetInCU: 0x1D457, offset: 0x41EAA, size: 0x8, addend: 0x0, symName: __ZNSt3__122__hash_node_destructorINS_9allocatorINS_11__hash_nodeINS_17__hash_value_typeINS_12basic_stringIcNS_11char_traitsIcEENS1_IcEEEEP4CityEEPvEEEEEclB8ue170006EPSD_, symObjAddr: 0x7198, symBinAddr: 0x100011854, symSize: 0x98 }
  - { offsetInCU: 0x1D48B, offset: 0x41EDE, size: 0x8, addend: 0x0, symName: __ZNSt3__116allocator_traitsINS_9allocatorINS_11__hash_nodeINS_17__hash_value_typeINS_12basic_stringIcNS_11char_traitsIcEENS1_IcEEEEP4CityEEPvEEEEE7destroyB8ue170006INS_4pairIKS8_SA_EEvvEEvRSE_PT_, symObjAddr: 0x7230, symBinAddr: 0x1000118EC, symSize: 0x28 }
  - { offsetInCU: 0x1D4C5, offset: 0x41F18, size: 0x8, addend: 0x0, symName: __ZNSt3__116allocator_traitsINS_9allocatorINS_11__hash_nodeINS_17__hash_value_typeINS_12basic_stringIcNS_11char_traitsIcEENS1_IcEEEEP4CityEEPvEEEEE10deallocateB8ue170006ERSE_PSD_m, symObjAddr: 0x7258, symBinAddr: 0x100011914, symSize: 0x34 }
  - { offsetInCU: 0x1D507, offset: 0x41F5A, size: 0x8, addend: 0x0, symName: __ZNSt3__19allocatorINS_11__hash_nodeINS_17__hash_value_typeINS_12basic_stringIcNS_11char_traitsIcEENS0_IcEEEEP4CityEEPvEEE10deallocateB8ue170006EPSC_m, symObjAddr: 0x728C, symBinAddr: 0x100011948, symSize: 0x44 }
  - { offsetInCU: 0x1D548, offset: 0x41F9B, size: 0x8, addend: 0x0, symName: __ZNSt3__115__hash_iteratorIPNS_11__hash_nodeINS_17__hash_value_typeINS_12basic_stringIcNS_11char_traitsIcEENS_9allocatorIcEEEEP4CityEEPvEEEC2B8ue170006EPNS_16__hash_node_baseISE_EE, symObjAddr: 0x72D0, symBinAddr: 0x10001198C, symSize: 0x20 }
  - { offsetInCU: 0x1D580, offset: 0x41FD3, size: 0x8, addend: 0x0, symName: __ZNSt3__14pairINS_15__hash_iteratorIPNS_11__hash_nodeINS_17__hash_value_typeINS_12basic_stringIcNS_11char_traitsIcEENS_9allocatorIcEEEEP4CityEEPvEEEEbEC2B8ue170006ISG_RbLSD_0EEEOT_OT0_, symObjAddr: 0x72F0, symBinAddr: 0x1000119AC, symSize: 0x38 }
  - { offsetInCU: 0x1D5DD, offset: 0x42030, size: 0x8, addend: 0x0, symName: __ZNSt3__14pairINS_19__hash_map_iteratorINS_15__hash_iteratorIPNS_11__hash_nodeINS_17__hash_value_typeINS_12basic_stringIcNS_11char_traitsIcEENS_9allocatorIcEEEEP4CityEEPvEEEEEEbEC2B8ue170006ISH_bLSE_0EEEONS0_IT_T0_EE, symObjAddr: 0x7328, symBinAddr: 0x1000119E4, symSize: 0x50 }
  - { offsetInCU: 0x1D62D, offset: 0x42080, size: 0x8, addend: 0x0, symName: __ZNSt3__119__hash_map_iteratorINS_15__hash_iteratorIPNS_11__hash_nodeINS_17__hash_value_typeINS_12basic_stringIcNS_11char_traitsIcEENS_9allocatorIcEEEEP4CityEEPvEEEEEC1B8ue170006ESG_, symObjAddr: 0x7378, symBinAddr: 0x100011A34, symSize: 0x34 }
  - { offsetInCU: 0x1D665, offset: 0x420B8, size: 0x8, addend: 0x0, symName: __ZNSt3__119__hash_map_iteratorINS_15__hash_iteratorIPNS_11__hash_nodeINS_17__hash_value_typeINS_12basic_stringIcNS_11char_traitsIcEENS_9allocatorIcEEEEP4CityEEPvEEEEEC2B8ue170006ESG_, symObjAddr: 0x73AC, symBinAddr: 0x100011A68, symSize: 0x20 }
  - { offsetInCU: 0x1D6A2, offset: 0x420F5, size: 0x8, addend: 0x0, symName: __ZNSt3__14pairINS_12basic_stringIcNS_11char_traitsIcEENS_9allocatorIcEEEEP4CityEC1B8ue170006IS6_RS8_LPv0EEEOT_OT0_, symObjAddr: 0x73CC, symBinAddr: 0x100011A88, symSize: 0x3C }
  - { offsetInCU: 0x1D6FF, offset: 0x42152, size: 0x8, addend: 0x0, symName: __ZNSt3__14pairINS_12basic_stringIcNS_11char_traitsIcEENS_9allocatorIcEEEEP4CityEC2B8ue170006IS6_RS8_LPv0EEEOT_OT0_, symObjAddr: 0x7408, symBinAddr: 0x100011AC4, symSize: 0x44 }
  - { offsetInCU: 0x1D75C, offset: 0x421AF, size: 0x8, addend: 0x0, symName: __ZNSt3__14pairINS_12basic_stringIcNS_11char_traitsIcEENS_9allocatorIcEEEEP4CityED2Ev, symObjAddr: 0x744C, symBinAddr: 0x100011B08, symSize: 0x2C }
  - { offsetInCU: 0x1D787, offset: 0x421DA, size: 0x8, addend: 0x0, symName: __ZNSt3__16vectorIP4CityNS_9allocatorIS2_EEE22__construct_one_at_endB8ue170006IJRKS2_EEEvDpOT_, symObjAddr: 0x74E8, symBinAddr: 0x100011B7C, symSize: 0x90 }
  - { offsetInCU: 0x1D7D5, offset: 0x42228, size: 0x8, addend: 0x0, symName: __ZNSt3__16vectorIP4CityNS_9allocatorIS2_EEE12__move_rangeEPS2_S6_S6_, symObjAddr: 0x7578, symBinAddr: 0x100011C0C, symSize: 0x12C }
  - { offsetInCU: 0x1D891, offset: 0x422E4, size: 0x8, addend: 0x0, symName: __ZNSt3__114pointer_traitsIPKP4CityE10pointer_toB8ue170006ERS3_, symObjAddr: 0x76A4, symBinAddr: 0x100011D38, symSize: 0x14 }
  - { offsetInCU: 0x1D8B4, offset: 0x42307, size: 0x8, addend: 0x0, symName: __ZNSt3__114__split_bufferIP4CityRNS_9allocatorIS2_EEE9push_backB8ue170006ERKS2_, symObjAddr: 0x77D8, symBinAddr: 0x100011D4C, symSize: 0x260 }
  - { offsetInCU: 0x1D92C, offset: 0x4237F, size: 0x8, addend: 0x0, symName: __ZNSt3__16vectorIP4CityNS_9allocatorIS2_EEE11__make_iterB8ue170006EPS2_, symObjAddr: 0x7BB0, symBinAddr: 0x1000120F8, symSize: 0x30 }
  - { offsetInCU: 0x1D960, offset: 0x423B3, size: 0x8, addend: 0x0, symName: __ZNKSt3__111__wrap_iterIPKP4CityE4baseB8ue170006Ev, symObjAddr: 0x7BE0, symBinAddr: 0x100012128, symSize: 0x18 }
  - { offsetInCU: 0x1D985, offset: 0x423D8, size: 0x8, addend: 0x0, symName: __ZNKSt3__111__wrap_iterIPP4CityE4baseB8ue170006Ev, symObjAddr: 0x7BF8, symBinAddr: 0x100012140, symSize: 0x18 }
  - { offsetInCU: 0x1D9C3, offset: 0x42416, size: 0x8, addend: 0x0, symName: __ZNSt3__116allocator_traitsINS_9allocatorIP4CityEEE9constructB8ue170006IS3_JRKS3_EvEEvRS4_PT_DpOT0_, symObjAddr: 0x7C84, symBinAddr: 0x100012158, symSize: 0x34 }
  - { offsetInCU: 0x1DA1A, offset: 0x4246D, size: 0x8, addend: 0x0, symName: __ZNSt3__19allocatorIP4CityE9constructB8ue170006IS2_JRKS2_EEEvPT_DpOT0_, symObjAddr: 0x7D3C, symBinAddr: 0x10001218C, symSize: 0x28 }
  - { offsetInCU: 0x1DA6F, offset: 0x424C2, size: 0x8, addend: 0x0, symName: __ZNSt3__116allocator_traitsINS_9allocatorIP4CityEEE9constructB8ue170006IS3_JS3_EvEEvRS4_PT_DpOT0_, symObjAddr: 0x7D84, symBinAddr: 0x1000121B4, symSize: 0x34 }
  - { offsetInCU: 0x1DAC6, offset: 0x42519, size: 0x8, addend: 0x0, symName: __ZNSt3__19allocatorIP4CityE9constructB8ue170006IS2_JS2_EEEvPT_DpOT0_, symObjAddr: 0x7DF8, symBinAddr: 0x100012228, symSize: 0x28 }
  - { offsetInCU: 0x1DB3E, offset: 0x42591, size: 0x8, addend: 0x0, symName: __ZNKSt3__123__move_backward_trivialclB8ue170006IP4CityS3_Li0EEENS_4pairIPT_PT0_EES6_S6_S8_, symObjAddr: 0x7FBC, symBinAddr: 0x1000123EC, symSize: 0x48 }
  - { offsetInCU: 0x1DBA5, offset: 0x425F8, size: 0x8, addend: 0x0, symName: __ZNSt3__14pairIPP4CityS3_EC1B8ue170006IRS3_S6_LPv0EEEOT_OT0_, symObjAddr: 0x81F4, symBinAddr: 0x100012624, symSize: 0x3C }
  - { offsetInCU: 0x1DC02, offset: 0x42655, size: 0x8, addend: 0x0, symName: __ZNSt3__14pairIPP4CityS3_EC2B8ue170006IRS3_S6_LPv0EEEOT_OT0_, symObjAddr: 0x8230, symBinAddr: 0x100012660, symSize: 0x34 }
  - { offsetInCU: 0x1DC5F, offset: 0x426B2, size: 0x8, addend: 0x0, symName: __ZNSt3__118__unwrap_iter_implIPP4CityLb1EE8__unwrapB8ue170006ES3_, symObjAddr: 0x8264, symBinAddr: 0x100012694, symSize: 0x24 }
  - { offsetInCU: 0x1DC87, offset: 0x426DA, size: 0x8, addend: 0x0, symName: __ZNSt3__14pairIPP4CityS3_EC1B8ue170006IS3_S3_LPv0EEEOT_OT0_, symObjAddr: 0x8288, symBinAddr: 0x1000126B8, symSize: 0x3C }
  - { offsetInCU: 0x1DCE4, offset: 0x42737, size: 0x8, addend: 0x0, symName: __ZNSt3__14pairIPP4CityS3_EC2B8ue170006IS3_S3_LPv0EEEOT_OT0_, symObjAddr: 0x82C4, symBinAddr: 0x1000126F4, symSize: 0x34 }
  - { offsetInCU: 0x1DD41, offset: 0x42794, size: 0x8, addend: 0x0, symName: __ZNSt3__118__unwrap_iter_implIPP4CityLb1EE8__rewrapB8ue170006ES3_S3_, symObjAddr: 0x82F8, symBinAddr: 0x100012728, symSize: 0x50 }
  - { offsetInCU: 0x1DD7C, offset: 0x427CF, size: 0x8, addend: 0x0, symName: __ZNSt3__114__split_bufferIP4CityRNS_9allocatorIS2_EEE18__construct_at_endINS_13move_iteratorIPS2_EEEENS_9enable_ifIXsr31__has_forward_iterator_categoryIT_EE5valueEvE4typeESC_SC_, symObjAddr: 0x89B8, symBinAddr: 0x1000127B8, symSize: 0x60 }
  - { offsetInCU: 0x1DDC7, offset: 0x4281A, size: 0x8, addend: 0x0, symName: __ZNSt3__113move_iteratorIPP4CityEC1B8ue170006ES3_, symObjAddr: 0x8A18, symBinAddr: 0x100012818, symSize: 0x34 }
  - { offsetInCU: 0x1DE08, offset: 0x4285B, size: 0x8, addend: 0x0, symName: __ZNKSt3__114__move_trivialclB8ue170006IP4CityS3_Li0EEENS_4pairIPT_PT0_EES6_S6_S8_, symObjAddr: 0x8BC4, symBinAddr: 0x100012988, symSize: 0x48 }
  - { offsetInCU: 0x1DE6F, offset: 0x428C2, size: 0x8, addend: 0x0, symName: __ZNSt3__14pairIPP4CityS3_EC1B8ue170006IRS3_S3_LPv0EEEOT_OT0_, symObjAddr: 0x8CC4, symBinAddr: 0x100012A88, symSize: 0x3C }
  - { offsetInCU: 0x1DECC, offset: 0x4291F, size: 0x8, addend: 0x0, symName: __ZNSt3__14pairIPP4CityS3_EC2B8ue170006IRS3_S3_LPv0EEEOT_OT0_, symObjAddr: 0x8D00, symBinAddr: 0x100012AC4, symSize: 0x34 }
  - { offsetInCU: 0x1DF29, offset: 0x4297C, size: 0x8, addend: 0x0, symName: __ZNSt3__114__split_bufferIP4CityRNS_9allocatorIS2_EEE28__construct_at_end_with_sizeINS_13move_iteratorIPS2_EEEEvT_m, symObjAddr: 0x8D34, symBinAddr: 0x100012AF8, symSize: 0xDC }
  - { offsetInCU: 0x1DF8D, offset: 0x429E0, size: 0x8, addend: 0x0, symName: __ZNKSt3__113move_iteratorIPP4CityEdeB8ue170006Ev, symObjAddr: 0x8E88, symBinAddr: 0x100012C10, symSize: 0x18 }
  - { offsetInCU: 0x1DFB2, offset: 0x42A05, size: 0x8, addend: 0x0, symName: __ZNSt3__113move_iteratorIPP4CityEppB8ue170006Ev, symObjAddr: 0x8EA0, symBinAddr: 0x100012C28, symSize: 0x20 }
  - { offsetInCU: 0x1DFD7, offset: 0x42A2A, size: 0x8, addend: 0x0, symName: __ZNKSt3__113move_iteratorIPP4CityE4baseB8ue170006Ev, symObjAddr: 0x8FC8, symBinAddr: 0x100012CC0, symSize: 0x18 }
  - { offsetInCU: 0x1DFFC, offset: 0x42A4F, size: 0x8, addend: 0x0, symName: __ZNSt3__113move_iteratorIPP4CityEC2B8ue170006ES3_, symObjAddr: 0x8FE0, symBinAddr: 0x100012CD8, symSize: 0x20 }
  - { offsetInCU: 0x1E033, offset: 0x42A86, size: 0x8, addend: 0x0, symName: __ZNSt3__111__wrap_iterIPP4CityEC1B8ue170006ES3_, symObjAddr: 0x9BC8, symBinAddr: 0x100012D30, symSize: 0x34 }
  - { offsetInCU: 0x1E06A, offset: 0x42ABD, size: 0x8, addend: 0x0, symName: __ZNSt3__111__wrap_iterIPP4CityEC2B8ue170006ES3_, symObjAddr: 0x9BFC, symBinAddr: 0x100012D64, symSize: 0x20 }
  - { offsetInCU: 0x1E0A1, offset: 0x42AF4, size: 0x8, addend: 0x0, symName: __ZNSt3__111__wrap_iterIPP4CityEpLB8ue170006El, symObjAddr: 0x9C1C, symBinAddr: 0x100012D84, symSize: 0x28 }
  - { offsetInCU: 0x1E0D4, offset: 0x42B27, size: 0x8, addend: 0x0, symName: __ZNSt3__119basic_istringstreamIcNS_11char_traitsIcEENS_9allocatorIcEEED2Ev, symObjAddr: 0x9C44, symBinAddr: 0x100012DAC, symSize: 0x64 }
  - { offsetInCU: 0x1E10C, offset: 0x42B5F, size: 0x8, addend: 0x0, symName: __ZTv0_n24_NSt3__119basic_istringstreamIcNS_11char_traitsIcEENS_9allocatorIcEEED1Ev, symObjAddr: 0x9CA8, symBinAddr: 0x100012E10, symSize: 0x28 }
  - { offsetInCU: 0x1E128, offset: 0x42B7B, size: 0x8, addend: 0x0, symName: __ZNSt3__115basic_stringbufIcNS_11char_traitsIcEENS_9allocatorIcEEED1Ev, symObjAddr: 0x9CD0, symBinAddr: 0x100012E38, symSize: 0x2C }
  - { offsetInCU: 0x1E154, offset: 0x42BA7, size: 0x8, addend: 0x0, symName: __ZNSt3__115basic_stringbufIcNS_11char_traitsIcEENS_9allocatorIcEEED2Ev, symObjAddr: 0x9CFC, symBinAddr: 0x100012E64, symSize: 0x48 }
  - { offsetInCU: 0x1E180, offset: 0x42BD3, size: 0x8, addend: 0x0, symName: __ZNSt3__113basic_fstreamIcNS_11char_traitsIcEEED2Ev, symObjAddr: 0x9D44, symBinAddr: 0x100012EAC, symSize: 0x6C }
  - { offsetInCU: 0x1E1B7, offset: 0x42C0A, size: 0x8, addend: 0x0, symName: __ZThn16_NSt3__113basic_fstreamIcNS_11char_traitsIcEEED1Ev, symObjAddr: 0x9DB0, symBinAddr: 0x100012F18, symSize: 0x1C }
  - { offsetInCU: 0x1E1CD, offset: 0x42C20, size: 0x8, addend: 0x0, symName: __ZTv0_n24_NSt3__113basic_fstreamIcNS_11char_traitsIcEEED1Ev, symObjAddr: 0x9DCC, symBinAddr: 0x100012F34, symSize: 0x28 }
  - { offsetInCU: 0x1E1E3, offset: 0x42C36, size: 0x8, addend: 0x0, symName: __ZNSt3__113basic_fstreamIcNS_11char_traitsIcEEED0Ev, symObjAddr: 0x9DF4, symBinAddr: 0x100012F5C, symSize: 0x30 }
  - { offsetInCU: 0x1E20E, offset: 0x42C61, size: 0x8, addend: 0x0, symName: __ZThn16_NSt3__113basic_fstreamIcNS_11char_traitsIcEEED0Ev, symObjAddr: 0x9E24, symBinAddr: 0x100012F8C, symSize: 0x18 }
  - { offsetInCU: 0x1E224, offset: 0x42C77, size: 0x8, addend: 0x0, symName: __ZTv0_n24_NSt3__113basic_fstreamIcNS_11char_traitsIcEEED0Ev, symObjAddr: 0x9E3C, symBinAddr: 0x100012FA4, symSize: 0x20 }
  - { offsetInCU: 0x1E23A, offset: 0x42C8D, size: 0x8, addend: 0x0, symName: __ZNSt3__113unordered_mapINS_12basic_stringIcNS_11char_traitsIcEENS_9allocatorIcEEEEP4CityNS_4hashIS6_EENS_8equal_toIS6_EENS4_INS_4pairIKS6_S8_EEEEE2atERSE_, symObjAddr: 0x9E5C, symBinAddr: 0x100012FC4, symSize: 0x7C }
  - { offsetInCU: 0x1E27E, offset: 0x42CD1, size: 0x8, addend: 0x0, symName: __ZNSt3__113unordered_mapINS_12basic_stringIcNS_11char_traitsIcEENS_9allocatorIcEEEEP4CityNS_4hashIS6_EENS_8equal_toIS6_EENS4_INS_4pairIKS6_S8_EEEEE4findB8ue170006ERSE_, symObjAddr: 0x9ED8, symBinAddr: 0x100013040, symSize: 0x40 }
  - { offsetInCU: 0x1E2B2, offset: 0x42D05, size: 0x8, addend: 0x0, symName: __ZNKSt3__119__hash_map_iteratorINS_15__hash_iteratorIPNS_11__hash_nodeINS_17__hash_value_typeINS_12basic_stringIcNS_11char_traitsIcEENS_9allocatorIcEEEEP4CityEEPvEEEEEptB8ue170006Ev, symObjAddr: 0x9FAC, symBinAddr: 0x1000130B0, symSize: 0x2C }
  - { offsetInCU: 0x1E2D7, offset: 0x42D2A, size: 0x8, addend: 0x0, symName: __ZNSt3__112__hash_tableINS_17__hash_value_typeINS_12basic_stringIcNS_11char_traitsIcEENS_9allocatorIcEEEEP4CityEENS_22__unordered_map_hasherIS7_SA_NS_4hashIS7_EENS_8equal_toIS7_EELb1EEENS_21__unordered_map_equalIS7_SA_SF_SD_Lb1EEENS5_ISA_EEE4findIS7_EENS_15__hash_iteratorIPNS_11__hash_nodeISA_PvEEEERKT_, symObjAddr: 0x9FD8, symBinAddr: 0x1000130DC, symSize: 0x1B0 }
  - { offsetInCU: 0x1E360, offset: 0x42DB3, size: 0x8, addend: 0x0, symName: __ZNSt3__112__hash_tableINS_17__hash_value_typeINS_12basic_stringIcNS_11char_traitsIcEENS_9allocatorIcEEEEP4CityEENS_22__unordered_map_hasherIS7_SA_NS_4hashIS7_EENS_8equal_toIS7_EELb1EEENS_21__unordered_map_equalIS7_SA_SF_SD_Lb1EEENS5_ISA_EEE3endEv, symObjAddr: 0xA188, symBinAddr: 0x10001328C, symSize: 0x2C }
  - { offsetInCU: 0x1E386, offset: 0x42DD9, size: 0x8, addend: 0x0, symName: __ZNSt3__114pointer_traitsIPNS_4pairIKNS_12basic_stringIcNS_11char_traitsIcEENS_9allocatorIcEEEEP4CityEEE10pointer_toB8ue170006ERSB_, symObjAddr: 0xA264, symBinAddr: 0x1000132E8, symSize: 0x14 }
  - { offsetInCU: 0x1E3A9, offset: 0x42DFC, size: 0x8, addend: 0x0, symName: __ZNKSt3__115__hash_iteratorIPNS_11__hash_nodeINS_17__hash_value_typeINS_12basic_stringIcNS_11char_traitsIcEENS_9allocatorIcEEEEP4CityEEPvEEEptB8ue170006Ev, symObjAddr: 0xA278, symBinAddr: 0x1000132FC, symSize: 0x30 }
  - { offsetInCU: 0x1E3CE, offset: 0x42E21, size: 0x8, addend: 0x0, symName: __ZNSt3__114pointer_traitsIPNS_17__hash_value_typeINS_12basic_stringIcNS_11char_traitsIcEENS_9allocatorIcEEEEP4CityEEE10pointer_toB8ue170006ERSA_, symObjAddr: 0xA2A8, symBinAddr: 0x10001332C, symSize: 0x14 }
  - { offsetInCU: 0x1E3F1, offset: 0x42E44, size: 0x8, addend: 0x0, symName: __ZNKSt3__113unordered_mapINS_12basic_stringIcNS_11char_traitsIcEENS_9allocatorIcEEEEP4CityNS_4hashIS6_EENS_8equal_toIS6_EENS4_INS_4pairIKS6_S8_EEEEE4sizeB8ue170006Ev, symObjAddr: 0xA30C, symBinAddr: 0x100013340, symSize: 0x24 }
  - { offsetInCU: 0x1E416, offset: 0x42E69, size: 0x8, addend: 0x0, symName: __ZNKSt3__112__hash_tableINS_17__hash_value_typeINS_12basic_stringIcNS_11char_traitsIcEENS_9allocatorIcEEEEP4CityEENS_22__unordered_map_hasherIS7_SA_NS_4hashIS7_EENS_8equal_toIS7_EELb1EEENS_21__unordered_map_equalIS7_SA_SF_SD_Lb1EEENS5_ISA_EEE4sizeB8ue170006Ev, symObjAddr: 0xA330, symBinAddr: 0x100013364, symSize: 0x2C }
  - { offsetInCU: 0x1E43B, offset: 0x42E8E, size: 0x8, addend: 0x0, symName: __ZNKSt3__117__compressed_pairImNS_22__unordered_map_hasherINS_12basic_stringIcNS_11char_traitsIcEENS_9allocatorIcEEEENS_17__hash_value_typeIS7_P4CityEENS_4hashIS7_EENS_8equal_toIS7_EELb1EEEE5firstB8ue170006Ev, symObjAddr: 0xA35C, symBinAddr: 0x100013390, symSize: 0x24 }
  - { offsetInCU: 0x1E460, offset: 0x42EB3, size: 0x8, addend: 0x0, symName: __ZNSt3__15queueImNS_5dequeImNS_9allocatorImEEEEED2Ev, symObjAddr: 0xA380, symBinAddr: 0x1000133B4, symSize: 0x2C }
  - { offsetInCU: 0x1E48C, offset: 0x42EDF, size: 0x8, addend: 0x0, symName: __ZNSt3__15dequeImNS_9allocatorImEEED1B8ue170006Ev, symObjAddr: 0xA3AC, symBinAddr: 0x1000133E0, symSize: 0x2C }
  - { offsetInCU: 0x1E4B5, offset: 0x42F08, size: 0x8, addend: 0x0, symName: __ZNSt3__15dequeImNS_9allocatorImEEED2B8ue170006Ev, symObjAddr: 0xA3D8, symBinAddr: 0x10001340C, symSize: 0xA4 }
  - { offsetInCU: 0x1E50B, offset: 0x42F5E, size: 0x8, addend: 0x0, symName: __ZNSt3__15dequeImNS_9allocatorImEEE5clearEv, symObjAddr: 0xA47C, symBinAddr: 0x1000134B0, symSize: 0x194 }
  - { offsetInCU: 0x1E565, offset: 0x42FB8, size: 0x8, addend: 0x0, symName: __ZNKSt3__15dequeImNS_9allocatorImEEE17__annotate_deleteB8ue170006Ev, symObjAddr: 0xA610, symBinAddr: 0x100013644, symSize: 0xE8 }
  - { offsetInCU: 0x1E5A8, offset: 0x42FFB, size: 0x8, addend: 0x0, symName: __ZNSt3__114__split_bufferIPmNS_9allocatorIS1_EEE5beginB8ue170006Ev, symObjAddr: 0xA6F8, symBinAddr: 0x10001372C, symSize: 0x18 }
  - { offsetInCU: 0x1E5CD, offset: 0x43020, size: 0x8, addend: 0x0, symName: __ZNSt3__114__split_bufferIPmNS_9allocatorIS1_EEE3endB8ue170006Ev, symObjAddr: 0xA710, symBinAddr: 0x100013744, symSize: 0x18 }
  - { offsetInCU: 0x1E5F2, offset: 0x43045, size: 0x8, addend: 0x0, symName: __ZNSt3__116allocator_traitsINS_9allocatorImEEE10deallocateB8ue170006ERS2_Pmm, symObjAddr: 0xA728, symBinAddr: 0x10001375C, symSize: 0x34 }
  - { offsetInCU: 0x1E634, offset: 0x43087, size: 0x8, addend: 0x0, symName: __ZNSt3__15dequeImNS_9allocatorImEEE7__allocB8ue170006Ev, symObjAddr: 0xA75C, symBinAddr: 0x100013790, symSize: 0x28 }
  - { offsetInCU: 0x1E659, offset: 0x430AC, size: 0x8, addend: 0x0, symName: __ZNSt3__114__split_bufferIPmNS_9allocatorIS1_EEED1Ev, symObjAddr: 0xA784, symBinAddr: 0x1000137B8, symSize: 0x2C }
  - { offsetInCU: 0x1E684, offset: 0x430D7, size: 0x8, addend: 0x0, symName: __ZNSt3__15dequeImNS_9allocatorImEEE5beginB8ue170006Ev, symObjAddr: 0xA7B0, symBinAddr: 0x1000137E4, symSize: 0xB8 }
  - { offsetInCU: 0x1E6B8, offset: 0x4310B, size: 0x8, addend: 0x0, symName: __ZNSt3__15dequeImNS_9allocatorImEEE3endB8ue170006Ev, symObjAddr: 0xA868, symBinAddr: 0x10001389C, symSize: 0xBC }
  - { offsetInCU: 0x1E6FB, offset: 0x4314E, size: 0x8, addend: 0x0, symName: __ZNSt3__116allocator_traitsINS_9allocatorImEEE7destroyB8ue170006ImvEEvRS2_PT_, symObjAddr: 0xA958, symBinAddr: 0x10001398C, symSize: 0x2C }
  - { offsetInCU: 0x1E738, offset: 0x4318B, size: 0x8, addend: 0x0, symName: __ZNKSt3__116__deque_iteratorImPmRmPS1_lLl512EEdeB8ue170006Ev, symObjAddr: 0xA984, symBinAddr: 0x1000139B8, symSize: 0x18 }
  - { offsetInCU: 0x1E75D, offset: 0x431B0, size: 0x8, addend: 0x0, symName: __ZNSt3__116__deque_iteratorImPmRmPS1_lLl512EEppB8ue170006Ev, symObjAddr: 0xA99C, symBinAddr: 0x1000139D0, symSize: 0x70 }
  - { offsetInCU: 0x1E782, offset: 0x431D5, size: 0x8, addend: 0x0, symName: __ZNSt3__15dequeImNS_9allocatorImEEE6__sizeB8ue170006Ev, symObjAddr: 0xAA0C, symBinAddr: 0x100013A40, symSize: 0x28 }
  - { offsetInCU: 0x1E7A7, offset: 0x431FA, size: 0x8, addend: 0x0, symName: __ZNKSt3__114__split_bufferIPmNS_9allocatorIS1_EEE4sizeB8ue170006Ev, symObjAddr: 0xAA34, symBinAddr: 0x100013A68, symSize: 0x28 }
  - { offsetInCU: 0x1E7CC, offset: 0x4321F, size: 0x8, addend: 0x0, symName: __ZNSt3__114__split_bufferIPmNS_9allocatorIS1_EEE5frontB8ue170006Ev, symObjAddr: 0xAA5C, symBinAddr: 0x100013A90, symSize: 0x18 }
  - { offsetInCU: 0x1E7F1, offset: 0x43244, size: 0x8, addend: 0x0, symName: __ZNSt3__114__split_bufferIPmNS_9allocatorIS1_EEE9pop_frontB8ue170006Ev, symObjAddr: 0xAA74, symBinAddr: 0x100013AA8, symSize: 0x2C }
  - { offsetInCU: 0x1E816, offset: 0x43269, size: 0x8, addend: 0x0, symName: __ZNKSt3__15dequeImNS_9allocatorImEEE14__annotate_newB8ue170006Em, symObjAddr: 0xAAA0, symBinAddr: 0x100013AD4, symSize: 0xB8 }
  - { offsetInCU: 0x1E84A, offset: 0x4329D, size: 0x8, addend: 0x0, symName: __ZNKSt3__114__split_bufferIPmNS_9allocatorIS1_EEE5emptyB8ue170006Ev, symObjAddr: 0xAB58, symBinAddr: 0x100013B8C, symSize: 0x28 }
  - { offsetInCU: 0x1E86F, offset: 0x432C2, size: 0x8, addend: 0x0, symName: __ZNSt3__116__deque_iteratorImPmRmPS1_lLl512EEC1B8ue170006ES3_S1_, symObjAddr: 0xAB80, symBinAddr: 0x100013BB4, symSize: 0x3C }
  - { offsetInCU: 0x1E8B6, offset: 0x43309, size: 0x8, addend: 0x0, symName: __ZNSt3__116__deque_iteratorImPmRmPS1_lLl512EEC2B8ue170006ES3_S1_, symObjAddr: 0xABBC, symBinAddr: 0x100013BF0, symSize: 0x2C }
  - { offsetInCU: 0x1E8FD, offset: 0x43350, size: 0x8, addend: 0x0, symName: __ZNKSt3__15dequeImNS_9allocatorImEEE4sizeB8ue170006Ev, symObjAddr: 0xABE8, symBinAddr: 0x100013C1C, symSize: 0x28 }
  - { offsetInCU: 0x1E922, offset: 0x43375, size: 0x8, addend: 0x0, symName: __ZNKSt3__15dequeImNS_9allocatorImEEE6__sizeB8ue170006Ev, symObjAddr: 0xAC10, symBinAddr: 0x100013C44, symSize: 0x28 }
  - { offsetInCU: 0x1E947, offset: 0x4339A, size: 0x8, addend: 0x0, symName: __ZNKSt3__117__compressed_pairImNS_9allocatorImEEE5firstB8ue170006Ev, symObjAddr: 0xAC38, symBinAddr: 0x100013C6C, symSize: 0x24 }
  - { offsetInCU: 0x1E96C, offset: 0x433BF, size: 0x8, addend: 0x0, symName: __ZNSt3__19allocatorImE7destroyB8ue170006EPm, symObjAddr: 0xAC8C, symBinAddr: 0x100013CC0, symSize: 0x14 }
  - { offsetInCU: 0x1E99F, offset: 0x433F2, size: 0x8, addend: 0x0, symName: __ZNSt3__117__compressed_pairImNS_9allocatorImEEE5firstB8ue170006Ev, symObjAddr: 0xACA0, symBinAddr: 0x100013CD4, symSize: 0x24 }
  - { offsetInCU: 0x1E9C4, offset: 0x43417, size: 0x8, addend: 0x0, symName: __ZNSt3__114__split_bufferIPmNS_9allocatorIS1_EEE19__destruct_at_beginB8ue170006EPS1_, symObjAddr: 0xACC4, symBinAddr: 0x100013CF8, symSize: 0x2C }
  - { offsetInCU: 0x1E9F7, offset: 0x4344A, size: 0x8, addend: 0x0, symName: __ZNSt3__114__split_bufferIPmNS_9allocatorIS1_EEE19__destruct_at_beginEPS1_NS_17integral_constantIbLb1EEE, symObjAddr: 0xACF0, symBinAddr: 0x100013D24, symSize: 0x20 }
  - { offsetInCU: 0x1EA37, offset: 0x4348A, size: 0x8, addend: 0x0, symName: __ZNKSt3__15dequeImNS_9allocatorImEEE18__annotate_from_toB8ue170006EmmNS3_22__asan_annotation_typeENS3_23__asan_annotation_placeE, symObjAddr: 0xAD10, symBinAddr: 0x100013D44, symSize: 0x580 }
  - { offsetInCU: 0x1EBF4, offset: 0x43647, size: 0x8, addend: 0x0, symName: __ZNKSt3__114__split_bufferIPmNS_9allocatorIS1_EEE5beginB8ue170006Ev, symObjAddr: 0xB290, symBinAddr: 0x1000142C4, symSize: 0x18 }
  - { offsetInCU: 0x1EC19, offset: 0x4366C, size: 0x8, addend: 0x0, symName: __ZNKSt3__15dequeImNS_9allocatorImEEE5emptyB8ue170006Ev, symObjAddr: 0xB2A8, symBinAddr: 0x1000142DC, symSize: 0x30 }
  - { offsetInCU: 0x1EC3E, offset: 0x43691, size: 0x8, addend: 0x0, symName: __ZNKSt3__15dequeImNS_9allocatorImEEE44__annotate_double_ended_contiguous_containerB8ue170006EPKvS5_S5_S5_S5_S5_, symObjAddr: 0xB2EC, symBinAddr: 0x100014320, symSize: 0x28 }
  - { offsetInCU: 0x1ECA5, offset: 0x436F8, size: 0x8, addend: 0x0, symName: __ZNKSt3__15dequeImNS_9allocatorImEEE22__annotate_whole_blockB8ue170006EmNS3_22__asan_annotation_typeE, symObjAddr: 0xB314, symBinAddr: 0x100014348, symSize: 0xAC }
  - { offsetInCU: 0x1ED15, offset: 0x43768, size: 0x8, addend: 0x0, symName: __ZNKSt3__15dequeImNS_9allocatorImEEE23__annotate_poison_blockB8ue170006EPKvS5_, symObjAddr: 0xB3C0, symBinAddr: 0x1000143F4, symSize: 0x44 }
  - { offsetInCU: 0x1ED58, offset: 0x437AB, size: 0x8, addend: 0x0, symName: __ZNSt3__19allocatorImE10deallocateB8ue170006EPmm, symObjAddr: 0xB404, symBinAddr: 0x100014438, symSize: 0x40 }
  - { offsetInCU: 0x1ED99, offset: 0x437EC, size: 0x8, addend: 0x0, symName: __ZNSt3__117__compressed_pairImNS_9allocatorImEEE6secondB8ue170006Ev, symObjAddr: 0xB444, symBinAddr: 0x100014478, symSize: 0x24 }
  - { offsetInCU: 0x1EDBE, offset: 0x43811, size: 0x8, addend: 0x0, symName: __ZNSt3__122__compressed_pair_elemINS_9allocatorImEELi1ELb1EE5__getB8ue170006Ev, symObjAddr: 0xB468, symBinAddr: 0x10001449C, symSize: 0x14 }
  - { offsetInCU: 0x1EDE3, offset: 0x43836, size: 0x8, addend: 0x0, symName: __ZNSt3__114__split_bufferIPmNS_9allocatorIS1_EEED2Ev, symObjAddr: 0xB47C, symBinAddr: 0x1000144B0, symSize: 0x8C }
  - { offsetInCU: 0x1EE0E, offset: 0x43861, size: 0x8, addend: 0x0, symName: __ZNSt3__114__split_bufferIPmNS_9allocatorIS1_EEE5clearB8ue170006Ev, symObjAddr: 0xB508, symBinAddr: 0x10001453C, symSize: 0x28 }
  - { offsetInCU: 0x1EE33, offset: 0x43886, size: 0x8, addend: 0x0, symName: __ZNSt3__116allocator_traitsINS_9allocatorIPmEEE10deallocateB8ue170006ERS3_PS2_m, symObjAddr: 0xB530, symBinAddr: 0x100014564, symSize: 0x34 }
  - { offsetInCU: 0x1EE75, offset: 0x438C8, size: 0x8, addend: 0x0, symName: __ZNSt3__114__split_bufferIPmNS_9allocatorIS1_EEE7__allocB8ue170006Ev, symObjAddr: 0xB564, symBinAddr: 0x100014598, symSize: 0x28 }
  - { offsetInCU: 0x1EE9A, offset: 0x438ED, size: 0x8, addend: 0x0, symName: __ZNKSt3__114__split_bufferIPmNS_9allocatorIS1_EEE8capacityB8ue170006Ev, symObjAddr: 0xB58C, symBinAddr: 0x1000145C0, symSize: 0x40 }
  - { offsetInCU: 0x1EEBF, offset: 0x43912, size: 0x8, addend: 0x0, symName: __ZNSt3__114__split_bufferIPmNS_9allocatorIS1_EEE17__destruct_at_endB8ue170006EPS1_, symObjAddr: 0xB5CC, symBinAddr: 0x100014600, symSize: 0x2C }
  - { offsetInCU: 0x1EEF2, offset: 0x43945, size: 0x8, addend: 0x0, symName: __ZNSt3__114__split_bufferIPmNS_9allocatorIS1_EEE17__destruct_at_endB8ue170006EPS1_NS_17integral_constantIbLb0EEE, symObjAddr: 0xB5F8, symBinAddr: 0x10001462C, symSize: 0x80 }
  - { offsetInCU: 0x1EF31, offset: 0x43984, size: 0x8, addend: 0x0, symName: __ZNSt3__116allocator_traitsINS_9allocatorIPmEEE7destroyB8ue170006IS2_vEEvRS3_PT_, symObjAddr: 0xB678, symBinAddr: 0x1000146AC, symSize: 0x2C }
  - { offsetInCU: 0x1EF6E, offset: 0x439C1, size: 0x8, addend: 0x0, symName: __ZNSt3__19allocatorIPmE7destroyB8ue170006EPS1_, symObjAddr: 0xB6B8, symBinAddr: 0x1000146EC, symSize: 0x14 }
  - { offsetInCU: 0x1EFA1, offset: 0x439F4, size: 0x8, addend: 0x0, symName: __ZNSt3__19allocatorIPmE10deallocateB8ue170006EPS1_m, symObjAddr: 0xB6CC, symBinAddr: 0x100014700, symSize: 0x40 }
  - { offsetInCU: 0x1EFE2, offset: 0x43A35, size: 0x8, addend: 0x0, symName: __ZNSt3__117__compressed_pairIPPmNS_9allocatorIS1_EEE6secondB8ue170006Ev, symObjAddr: 0xB70C, symBinAddr: 0x100014740, symSize: 0x24 }
  - { offsetInCU: 0x1F007, offset: 0x43A5A, size: 0x8, addend: 0x0, symName: __ZNSt3__122__compressed_pair_elemINS_9allocatorIPmEELi1ELb1EE5__getB8ue170006Ev, symObjAddr: 0xB730, symBinAddr: 0x100014764, symSize: 0x14 }
  - { offsetInCU: 0x1F02C, offset: 0x43A7F, size: 0x8, addend: 0x0, symName: __ZNKSt3__114__split_bufferIPmNS_9allocatorIS1_EEE9__end_capB8ue170006Ev, symObjAddr: 0xB744, symBinAddr: 0x100014778, symSize: 0x28 }
  - { offsetInCU: 0x1F051, offset: 0x43AA4, size: 0x8, addend: 0x0, symName: __ZNKSt3__117__compressed_pairIPPmNS_9allocatorIS1_EEE5firstB8ue170006Ev, symObjAddr: 0xB76C, symBinAddr: 0x1000147A0, symSize: 0x24 }
  - { offsetInCU: 0x1F076, offset: 0x43AC9, size: 0x8, addend: 0x0, symName: __ZNKSt3__122__compressed_pair_elemIPPmLi0ELb0EE5__getB8ue170006Ev, symObjAddr: 0xB790, symBinAddr: 0x1000147C4, symSize: 0x14 }
  - { offsetInCU: 0x1F09B, offset: 0x43AEE, size: 0x8, addend: 0x0, symName: __ZNSt3__16vectorIiNS_9allocatorIiEEEixB8ue170006Em, symObjAddr: 0xB84C, symBinAddr: 0x100014820, symSize: 0x24 }
  - { offsetInCU: 0x1F0D1, offset: 0x43B24, size: 0x8, addend: 0x0, symName: __ZNSt3__14pairIKNS_12basic_stringIcNS_11char_traitsIcEENS_9allocatorIcEEEEP4CityEC2B8ue170006ERKSA_, symObjAddr: 0xB870, symBinAddr: 0x100014844, symSize: 0x40 }
  - { offsetInCU: 0x1F105, offset: 0x43B58, size: 0x8, addend: 0x0, symName: __ZNSt3__14pairIKNS_12basic_stringIcNS_11char_traitsIcEENS_9allocatorIcEEEEP4CityED2Ev, symObjAddr: 0xB8B0, symBinAddr: 0x100014884, symSize: 0x2C }
  - { offsetInCU: 0x1F130, offset: 0x43B83, size: 0x8, addend: 0x0, symName: __ZNSt3__112basic_stringIcNS_11char_traitsIcEENS_9allocatorIcEEEC2B8ue170006Ev, symObjAddr: 0xB8DC, symBinAddr: 0x1000148B0, symSize: 0x44 }
  - { offsetInCU: 0x1F159, offset: 0x43BAC, size: 0x8, addend: 0x0, symName: __ZNSt3__117__compressed_pairINS_12basic_stringIcNS_11char_traitsIcEENS_9allocatorIcEEE5__repES5_EC1B8ue170006INS_18__default_init_tagESA_EEOT_OT0_, symObjAddr: 0xB920, symBinAddr: 0x1000148F4, symSize: 0x3C }
  - { offsetInCU: 0x1F1B0, offset: 0x43C03, size: 0x8, addend: 0x0, symName: __ZNSt3__117__compressed_pairINS_12basic_stringIcNS_11char_traitsIcEENS_9allocatorIcEEE5__repES5_EC2B8ue170006INS_18__default_init_tagESA_EEOT_OT0_, symObjAddr: 0xB95C, symBinAddr: 0x100014930, symSize: 0x3C }
  - { offsetInCU: 0x1F207, offset: 0x43C5A, size: 0x8, addend: 0x0, symName: __ZNSt3__122__compressed_pair_elemINS_12basic_stringIcNS_11char_traitsIcEENS_9allocatorIcEEE5__repELi0ELb0EEC2B8ue170006ENS_18__default_init_tagE, symObjAddr: 0xB998, symBinAddr: 0x10001496C, symSize: 0x14 }
  - { offsetInCU: 0x1F23B, offset: 0x43C8E, size: 0x8, addend: 0x0, symName: __ZNSt3__122__compressed_pair_elemINS_9allocatorIcEELi1ELb1EEC2B8ue170006ENS_18__default_init_tagE, symObjAddr: 0xB9AC, symBinAddr: 0x100014980, symSize: 0x2C }
  - { offsetInCU: 0x1F26F, offset: 0x43CC2, size: 0x8, addend: 0x0, symName: __ZNSt3__19allocatorIcEC2B8ue170006Ev, symObjAddr: 0xB9D8, symBinAddr: 0x1000149AC, symSize: 0x2C }
  - { offsetInCU: 0x1F298, offset: 0x43CEB, size: 0x8, addend: 0x0, symName: __ZNSt3__116__non_trivial_ifILb1ENS_9allocatorIcEEEC2B8ue170006Ev, symObjAddr: 0xBA04, symBinAddr: 0x1000149D8, symSize: 0x14 }
  - { offsetInCU: 0x1F2C1, offset: 0x43D14, size: 0x8, addend: 0x0, symName: __ZNSt3__112basic_stringIcNS_11char_traitsIcEENS_9allocatorIcEEE13__move_assignB8ue170006ERS5_NS_17integral_constantIbLb1EEE, symObjAddr: 0xBA18, symBinAddr: 0x1000149EC, symSize: 0xC8 }
  - { offsetInCU: 0x1F301, offset: 0x43D54, size: 0x8, addend: 0x0, symName: __ZNSt3__116allocator_traitsINS_9allocatorIcEEE10deallocateB8ue170006ERS2_Pcm, symObjAddr: 0xBAE0, symBinAddr: 0x100014AB4, symSize: 0x34 }
  - { offsetInCU: 0x1F343, offset: 0x43D96, size: 0x8, addend: 0x0, symName: __ZNSt3__112basic_stringIcNS_11char_traitsIcEENS_9allocatorIcEEE7__allocB8ue170006Ev, symObjAddr: 0xBB14, symBinAddr: 0x100014AE8, symSize: 0x24 }
  - { offsetInCU: 0x1F368, offset: 0x43DBB, size: 0x8, addend: 0x0, symName: __ZNSt3__112basic_stringIcNS_11char_traitsIcEENS_9allocatorIcEEE18__get_long_pointerB8ue170006Ev, symObjAddr: 0xBB38, symBinAddr: 0x100014B0C, symSize: 0x28 }
  - { offsetInCU: 0x1F38D, offset: 0x43DE0, size: 0x8, addend: 0x0, symName: __ZNKSt3__112basic_stringIcNS_11char_traitsIcEENS_9allocatorIcEEE14__get_long_capB8ue170006Ev, symObjAddr: 0xBB60, symBinAddr: 0x100014B34, symSize: 0x30 }
  - { offsetInCU: 0x1F3B2, offset: 0x43E05, size: 0x8, addend: 0x0, symName: __ZNSt3__112basic_stringIcNS_11char_traitsIcEENS_9allocatorIcEEE19__move_assign_allocB8ue170006ERS5_, symObjAddr: 0xBB90, symBinAddr: 0x100014B64, symSize: 0x2C }
  - { offsetInCU: 0x1F3E6, offset: 0x43E39, size: 0x8, addend: 0x0, symName: __ZNSt3__112basic_stringIcNS_11char_traitsIcEENS_9allocatorIcEEE16__set_short_sizeB8ue170006Em, symObjAddr: 0xBBBC, symBinAddr: 0x100014B90, symSize: 0x78 }
  - { offsetInCU: 0x1F41A, offset: 0x43E6D, size: 0x8, addend: 0x0, symName: __ZNSt3__111char_traitsIcE6assignB8ue170006ERcRKc, symObjAddr: 0xBC34, symBinAddr: 0x100014C08, symSize: 0x24 }
  - { offsetInCU: 0x1F44B, offset: 0x43E9E, size: 0x8, addend: 0x0, symName: __ZNSt3__112basic_stringIcNS_11char_traitsIcEENS_9allocatorIcEEE19__get_short_pointerB8ue170006Ev, symObjAddr: 0xBC58, symBinAddr: 0x100014C2C, symSize: 0x28 }
  - { offsetInCU: 0x1F470, offset: 0x43EC3, size: 0x8, addend: 0x0, symName: __ZNSt3__19allocatorIcE10deallocateB8ue170006EPcm, symObjAddr: 0xBC80, symBinAddr: 0x100014C54, symSize: 0x40 }
  - { offsetInCU: 0x1F4B1, offset: 0x43F04, size: 0x8, addend: 0x0, symName: __ZNSt3__117__compressed_pairINS_12basic_stringIcNS_11char_traitsIcEENS_9allocatorIcEEE5__repES5_E6secondB8ue170006Ev, symObjAddr: 0xBCC0, symBinAddr: 0x100014C94, symSize: 0x24 }
  - { offsetInCU: 0x1F4D6, offset: 0x43F29, size: 0x8, addend: 0x0, symName: __ZNSt3__122__compressed_pair_elemINS_9allocatorIcEELi1ELb1EE5__getB8ue170006Ev, symObjAddr: 0xBCE4, symBinAddr: 0x100014CB8, symSize: 0x14 }
  - { offsetInCU: 0x1F4FB, offset: 0x43F4E, size: 0x8, addend: 0x0, symName: __ZNSt3__112basic_stringIcNS_11char_traitsIcEENS_9allocatorIcEEE19__move_assign_allocB8ue170006ERS5_NS_17integral_constantIbLb1EEE, symObjAddr: 0xBCF8, symBinAddr: 0x100014CCC, symSize: 0x38 }
  - { offsetInCU: 0x1F53A, offset: 0x43F8D, size: 0x8, addend: 0x0, symName: __ZNSt3__114pointer_traitsIPcE10pointer_toB8ue170006ERc, symObjAddr: 0xBD30, symBinAddr: 0x100014D04, symSize: 0x14 }
  - { offsetInCU: 0x1F55D, offset: 0x43FB0, size: 0x8, addend: 0x0, symName: __ZNSt3__111__wrap_iterIPKP4CityEC2B8ue170006IPS2_EERKNS0_IT_EEPNS_9enable_ifIXsr14is_convertibleIS8_S4_EE5valueEvE4typeE, symObjAddr: 0xBDC8, symBinAddr: 0x100014D18, symSize: 0x40 }
  - { offsetInCU: 0x1F5A8, offset: 0x43FFB, size: 0x8, addend: 0x0, symName: __ZNSt3__16vectorIP4CityNS_9allocatorIS2_EEEC2B8ue170006Ev, symObjAddr: 0xBE08, symBinAddr: 0x100014D58, symSize: 0x4C }
  - { offsetInCU: 0x1F5D1, offset: 0x44024, size: 0x8, addend: 0x0, symName: __ZNSt3__117__compressed_pairIPP4CityNS_9allocatorIS2_EEEC1B8ue170006IDnNS_18__default_init_tagEEEOT_OT0_, symObjAddr: 0xBE54, symBinAddr: 0x100014DA4, symSize: 0x3C }
  - { offsetInCU: 0x1F628, offset: 0x4407B, size: 0x8, addend: 0x0, symName: __ZNSt3__117__compressed_pairIPP4CityNS_9allocatorIS2_EEEC2B8ue170006IDnNS_18__default_init_tagEEEOT_OT0_, symObjAddr: 0xBE90, symBinAddr: 0x100014DE0, symSize: 0x40 }
  - { offsetInCU: 0x1F67F, offset: 0x440D2, size: 0x8, addend: 0x0, symName: __ZNSt3__122__compressed_pair_elemINS_9allocatorIP4CityEELi1ELb1EEC2B8ue170006ENS_18__default_init_tagE, symObjAddr: 0xBED0, symBinAddr: 0x100014E20, symSize: 0x2C }
  - { offsetInCU: 0x1F6B3, offset: 0x44106, size: 0x8, addend: 0x0, symName: __ZNSt3__19allocatorIP4CityEC2B8ue170006Ev, symObjAddr: 0xBEFC, symBinAddr: 0x100014E4C, symSize: 0x2C }
  - { offsetInCU: 0x1F6DC, offset: 0x4412F, size: 0x8, addend: 0x0, symName: __ZNSt3__116__non_trivial_ifILb1ENS_9allocatorIP4CityEEEC2B8ue170006Ev, symObjAddr: 0xBF28, symBinAddr: 0x100014E78, symSize: 0x14 }
  - { offsetInCU: 0x1F705, offset: 0x44158, size: 0x8, addend: 0x0, symName: __ZNSt3__113unordered_mapINS_12basic_stringIcNS_11char_traitsIcEENS_9allocatorIcEEEEP4CityNS_4hashIS6_EENS_8equal_toIS6_EENS4_INS_4pairIKS6_S8_EEEEED2B8ue170006Ev, symObjAddr: 0xBF3C, symBinAddr: 0x100014E8C, symSize: 0x2C }
  - { offsetInCU: 0x1F72E, offset: 0x44181, size: 0x8, addend: 0x0, symName: __ZNSt3__112__hash_tableINS_17__hash_value_typeINS_12basic_stringIcNS_11char_traitsIcEENS_9allocatorIcEEEEP4CityEENS_22__unordered_map_hasherIS7_SA_NS_4hashIS7_EENS_8equal_toIS7_EELb1EEENS_21__unordered_map_equalIS7_SA_SF_SD_Lb1EEENS5_ISA_EEED1Ev, symObjAddr: 0xBF68, symBinAddr: 0x100014EB8, symSize: 0x2C }
  - { offsetInCU: 0x1F759, offset: 0x441AC, size: 0x8, addend: 0x0, symName: __ZNSt3__112__hash_tableINS_17__hash_value_typeINS_12basic_stringIcNS_11char_traitsIcEENS_9allocatorIcEEEEP4CityEENS_22__unordered_map_hasherIS7_SA_NS_4hashIS7_EENS_8equal_toIS7_EELb1EEENS_21__unordered_map_equalIS7_SA_SF_SD_Lb1EEENS5_ISA_EEED2Ev, symObjAddr: 0xBF94, symBinAddr: 0x100014EE4, symSize: 0x48 }
  - { offsetInCU: 0x1F784, offset: 0x441D7, size: 0x8, addend: 0x0, symName: __ZNSt3__112__hash_tableINS_17__hash_value_typeINS_12basic_stringIcNS_11char_traitsIcEENS_9allocatorIcEEEEP4CityEENS_22__unordered_map_hasherIS7_SA_NS_4hashIS7_EENS_8equal_toIS7_EELb1EEENS_21__unordered_map_equalIS7_SA_SF_SD_Lb1EEENS5_ISA_EEE17__deallocate_nodeEPNS_16__hash_node_baseIPNS_11__hash_nodeISA_PvEEEE, symObjAddr: 0xBFDC, symBinAddr: 0x100014F2C, symSize: 0xA4 }
  - { offsetInCU: 0x1F7ED, offset: 0x44240, size: 0x8, addend: 0x0, symName: __ZNSt3__110unique_ptrIA_PNS_16__hash_node_baseIPNS_11__hash_nodeINS_17__hash_value_typeINS_12basic_stringIcNS_11char_traitsIcEENS_9allocatorIcEEEEP4CityEEPvEEEENS_25__bucket_list_deallocatorINS7_ISH_EEEEED1B8ue170006Ev, symObjAddr: 0xC080, symBinAddr: 0x100014FD0, symSize: 0x2C }
  - { offsetInCU: 0x1F816, offset: 0x44269, size: 0x8, addend: 0x0, symName: __ZNSt3__110unique_ptrIA_PNS_16__hash_node_baseIPNS_11__hash_nodeINS_17__hash_value_typeINS_12basic_stringIcNS_11char_traitsIcEENS_9allocatorIcEEEEP4CityEEPvEEEENS_25__bucket_list_deallocatorINS7_ISH_EEEEED2B8ue170006Ev, symObjAddr: 0xC0AC, symBinAddr: 0x100014FFC, symSize: 0x30 }
  - { offsetInCU: 0x1F83F, offset: 0x44292, size: 0x8, addend: 0x0, symName: __ZNSt3__110unique_ptrIA_PNS_16__hash_node_baseIPNS_11__hash_nodeINS_17__hash_value_typeINS_12basic_stringIcNS_11char_traitsIcEENS_9allocatorIcEEEEP4CityEEPvEEEENS_25__bucket_list_deallocatorINS7_ISH_EEEEE5resetB8ue170006EDn, symObjAddr: 0xC0DC, symBinAddr: 0x10001502C, symSize: 0x6C }
  - { offsetInCU: 0x1F87E, offset: 0x442D1, size: 0x8, addend: 0x0, symName: __ZNSt3__16vectorIP4CityNS_9allocatorIS2_EEED2B8ue170006Ev, symObjAddr: 0xC148, symBinAddr: 0x100015098, symSize: 0x44 }
  - { offsetInCU: 0x1F8A7, offset: 0x442FA, size: 0x8, addend: 0x0, symName: __ZNSt3__16vectorIP4CityNS_9allocatorIS2_EEE16__destroy_vectorC1B8ue170006ERS5_, symObjAddr: 0xC18C, symBinAddr: 0x1000150DC, symSize: 0x34 }
  - { offsetInCU: 0x1F8DF, offset: 0x44332, size: 0x8, addend: 0x0, symName: __ZNSt3__16vectorIP4CityNS_9allocatorIS2_EEE16__destroy_vectorclB8ue170006Ev, symObjAddr: 0xC1C0, symBinAddr: 0x100015110, symSize: 0x90 }
  - { offsetInCU: 0x1F904, offset: 0x44357, size: 0x8, addend: 0x0, symName: __ZNSt3__16vectorIP4CityNS_9allocatorIS2_EEE16__destroy_vectorC2B8ue170006ERS5_, symObjAddr: 0xC250, symBinAddr: 0x1000151A0, symSize: 0x20 }
  - { offsetInCU: 0x1F93C, offset: 0x4438F, size: 0x8, addend: 0x0, symName: __ZNSt3__16vectorIP4CityNS_9allocatorIS2_EEE7__clearB8ue170006Ev, symObjAddr: 0xC270, symBinAddr: 0x1000151C0, symSize: 0x28 }
  - { offsetInCU: 0x1F961, offset: 0x443B4, size: 0x8, addend: 0x0, symName: __ZNSt3__19basic_iosIcNS_11char_traitsIcEEEC2B8ue170006Ev, symObjAddr: 0xC324, symBinAddr: 0x1000151E8, symSize: 0x44 }
  - { offsetInCU: 0x1F98A, offset: 0x443DD, size: 0x8, addend: 0x0, symName: __ZNSt3__114basic_iostreamIcNS_11char_traitsIcEEEC2B8ue170006EPNS_15basic_streambufIcS2_EE, symObjAddr: 0xC368, symBinAddr: 0x10001522C, symSize: 0xAC }
  - { offsetInCU: 0x1F9CE, offset: 0x44421, size: 0x8, addend: 0x0, symName: __ZNSt3__113basic_filebufIcNS_11char_traitsIcEEE4openERKNS_12basic_stringIcS2_NS_9allocatorIcEEEEj, symObjAddr: 0xC414, symBinAddr: 0x1000152D8, symSize: 0x44 }
  - { offsetInCU: 0x1FA10, offset: 0x44463, size: 0x8, addend: 0x0, symName: __ZNSt3__19basic_iosIcNS_11char_traitsIcEEE8setstateB8ue170006Ej, symObjAddr: 0xC458, symBinAddr: 0x10001531C, symSize: 0x2C }
  - { offsetInCU: 0x1FA44, offset: 0x44497, size: 0x8, addend: 0x0, symName: __ZNSt3__18ios_baseC2B8ue170006Ev, symObjAddr: 0xC484, symBinAddr: 0x100015348, symSize: 0x24 }
  - { offsetInCU: 0x1FA6D, offset: 0x444C0, size: 0x8, addend: 0x0, symName: __ZNSt3__113basic_istreamIcNS_11char_traitsIcEEEC2B8ue170006EPNS_15basic_streambufIcS2_EE, symObjAddr: 0xC4A8, symBinAddr: 0x10001536C, symSize: 0x64 }
  - { offsetInCU: 0x1FAB0, offset: 0x44503, size: 0x8, addend: 0x0, symName: __ZNSt3__113basic_ostreamIcNS_11char_traitsIcEEEC2B8ue170006Ev, symObjAddr: 0xC50C, symBinAddr: 0x1000153D0, symSize: 0x34 }
  - { offsetInCU: 0x1FAE5, offset: 0x44538, size: 0x8, addend: 0x0, symName: __ZNSt3__19basic_iosIcNS_11char_traitsIcEEE4initB8ue170006EPNS_15basic_streambufIcS2_EE, symObjAddr: 0xC540, symBinAddr: 0x100015404, symSize: 0x44 }
  - { offsetInCU: 0x1FB1A, offset: 0x4456D, size: 0x8, addend: 0x0, symName: __ZNSt3__111char_traitsIcE3eofB8ue170006Ev, symObjAddr: 0xC584, symBinAddr: 0x100015448, symSize: 0x8 }
  - { offsetInCU: 0x1FB2E, offset: 0x44581, size: 0x8, addend: 0x0, symName: __ZNSt3__18ios_base8setstateB8ue170006Ej, symObjAddr: 0xC58C, symBinAddr: 0x100015450, symSize: 0x34 }
  - { offsetInCU: 0x1FB63, offset: 0x445B6, size: 0x8, addend: 0x0, symName: __ZNKSt3__113basic_filebufIcNS_11char_traitsIcEEE7is_openEv, symObjAddr: 0xC5C0, symBinAddr: 0x100015484, symSize: 0x24 }
  - { offsetInCU: 0x1FB8A, offset: 0x445DD, size: 0x8, addend: 0x0, symName: __ZNKSt3__18ios_base4failB8ue170006Ev, symObjAddr: 0xC5E4, symBinAddr: 0x1000154A8, symSize: 0x28 }
  - { offsetInCU: 0x1FBCF, offset: 0x44622, size: 0x8, addend: 0x0, symName: __ZNKSt3__113basic_istreamIcNS_11char_traitsIcEEE6sentrycvbB8ue170006Ev, symObjAddr: 0xC60C, symBinAddr: 0x1000154D0, symSize: 0x1C }
  - { offsetInCU: 0x1FBF4, offset: 0x44647, size: 0x8, addend: 0x0, symName: __ZNSt3__112basic_stringIcNS_11char_traitsIcEENS_9allocatorIcEEE5clearB8ue170006Ev, symObjAddr: 0xC628, symBinAddr: 0x1000154EC, symSize: 0x78 }
  - { offsetInCU: 0x1FC1A, offset: 0x4466D, size: 0x8, addend: 0x0, symName: __ZNKSt3__18ios_base5widthB8ue170006Ev, symObjAddr: 0xC6A0, symBinAddr: 0x100015564, symSize: 0x18 }
  - { offsetInCU: 0x1FC41, offset: 0x44694, size: 0x8, addend: 0x0, symName: __ZNKSt3__112basic_stringIcNS_11char_traitsIcEENS_9allocatorIcEEE8max_sizeB8ue170006Ev, symObjAddr: 0xC6B8, symBinAddr: 0x10001557C, symSize: 0xAC }
  - { offsetInCU: 0x1FC93, offset: 0x446E6, size: 0x8, addend: 0x0, symName: __ZNKSt3__19basic_iosIcNS_11char_traitsIcEEE5rdbufB8ue170006Ev, symObjAddr: 0xC790, symBinAddr: 0x100015654, symSize: 0x24 }
  - { offsetInCU: 0x1FCB9, offset: 0x4470C, size: 0x8, addend: 0x0, symName: __ZNSt3__115basic_streambufIcNS_11char_traitsIcEEE5sgetcB8ue170006Ev, symObjAddr: 0xC7B4, symBinAddr: 0x100015678, symSize: 0x70 }
  - { offsetInCU: 0x1FCDE, offset: 0x44731, size: 0x8, addend: 0x0, symName: __ZNSt3__111char_traitsIcE11eq_int_typeB8ue170006Eii, symObjAddr: 0xC824, symBinAddr: 0x1000156E8, symSize: 0x28 }
  - { offsetInCU: 0x1FD11, offset: 0x44764, size: 0x8, addend: 0x0, symName: __ZNSt3__111char_traitsIcE12to_char_typeB8ue170006Ei, symObjAddr: 0xC84C, symBinAddr: 0x100015710, symSize: 0x18 }
  - { offsetInCU: 0x1FD5C, offset: 0x447AF, size: 0x8, addend: 0x0, symName: __ZNKSt3__15ctypeIcE2isB8ue170006Ejc, symObjAddr: 0xC864, symBinAddr: 0x100015728, symSize: 0x7C }
  - { offsetInCU: 0x1FD9F, offset: 0x447F2, size: 0x8, addend: 0x0, symName: __ZNSt3__115basic_streambufIcNS_11char_traitsIcEEE6sbumpcB8ue170006Ev, symObjAddr: 0xC8E0, symBinAddr: 0x1000157A4, symSize: 0x78 }
  - { offsetInCU: 0x1FDC4, offset: 0x44817, size: 0x8, addend: 0x0, symName: __ZNSt3__18ios_base5widthB8ue170006El, symObjAddr: 0xC958, symBinAddr: 0x10001581C, symSize: 0x2C }
  - { offsetInCU: 0x1FE09, offset: 0x4485C, size: 0x8, addend: 0x0, symName: __ZNSt3__18ios_base18__setstate_nothrowB8ue170006Ej, symObjAddr: 0xC984, symBinAddr: 0x100015848, symSize: 0x64 }
  - { offsetInCU: 0x1FE3D, offset: 0x44890, size: 0x8, addend: 0x0, symName: __ZNKSt3__19basic_iosIcNS_11char_traitsIcEEE10exceptionsB8ue170006Ev, symObjAddr: 0xC9E8, symBinAddr: 0x1000158AC, symSize: 0x24 }
  - { offsetInCU: 0x1FE62, offset: 0x448B5, size: 0x8, addend: 0x0, symName: __ZNSt3__112basic_stringIcNS_11char_traitsIcEENS_9allocatorIcEEE15__set_long_sizeB8ue170006Em, symObjAddr: 0xCA0C, symBinAddr: 0x1000158D0, symSize: 0x38 }
  - { offsetInCU: 0x1FEA0, offset: 0x448F3, size: 0x8, addend: 0x0, symName: __ZNSt3__116allocator_traitsINS_9allocatorIcEEE8max_sizeB8ue170006IS2_vEEmRKS2_, symObjAddr: 0xCA44, symBinAddr: 0x100015908, symSize: 0x24 }
  - { offsetInCU: 0x1FECE, offset: 0x44921, size: 0x8, addend: 0x0, symName: __ZNKSt3__112basic_stringIcNS_11char_traitsIcEENS_9allocatorIcEEE7__allocB8ue170006Ev, symObjAddr: 0xCA68, symBinAddr: 0x10001592C, symSize: 0x24 }
  - { offsetInCU: 0x1FEF3, offset: 0x44946, size: 0x8, addend: 0x0, symName: __ZNSt3__114numeric_limitsImE3maxB8ue170006Ev, symObjAddr: 0xCA8C, symBinAddr: 0x100015950, symSize: 0x14 }
  - { offsetInCU: 0x1FF07, offset: 0x4495A, size: 0x8, addend: 0x0, symName: __ZNKSt3__19allocatorIcE8max_sizeB8ue170006Ev, symObjAddr: 0xCAA0, symBinAddr: 0x100015964, symSize: 0x14 }
  - { offsetInCU: 0x1FF2C, offset: 0x4497F, size: 0x8, addend: 0x0, symName: __ZNKSt3__117__compressed_pairINS_12basic_stringIcNS_11char_traitsIcEENS_9allocatorIcEEE5__repES5_E6secondB8ue170006Ev, symObjAddr: 0xCAB4, symBinAddr: 0x100015978, symSize: 0x24 }
  - { offsetInCU: 0x1FF51, offset: 0x449A4, size: 0x8, addend: 0x0, symName: __ZNKSt3__122__compressed_pair_elemINS_9allocatorIcEELi1ELb1EE5__getB8ue170006Ev, symObjAddr: 0xCAD8, symBinAddr: 0x10001599C, symSize: 0x14 }
  - { offsetInCU: 0x1FF76, offset: 0x449C9, size: 0x8, addend: 0x0, symName: __ZNSt3__123__libcpp_numeric_limitsImLb1EE3maxB8ue170006Ev, symObjAddr: 0xCAEC, symBinAddr: 0x1000159B0, symSize: 0x8 }
  - { offsetInCU: 0x1FF8A, offset: 0x449DD, size: 0x8, addend: 0x0, symName: __ZNKSt3__18ios_base5rdbufB8ue170006Ev, symObjAddr: 0xCAF4, symBinAddr: 0x1000159B8, symSize: 0x18 }
  - { offsetInCU: 0x1FFAF, offset: 0x44A02, size: 0x8, addend: 0x0, symName: __ZNSt3__111char_traitsIcE11to_int_typeB8ue170006Ec, symObjAddr: 0xCB0C, symBinAddr: 0x1000159D0, symSize: 0x14 }
  - { offsetInCU: 0x1FFD2, offset: 0x44A25, size: 0x8, addend: 0x0, symName: __Z7isasciii, symObjAddr: 0xCB20, symBinAddr: 0x1000159E4, symSize: 0x24 }
  - { offsetInCU: 0x1FFFF, offset: 0x44A52, size: 0x8, addend: 0x0, symName: __ZNKSt3__18ios_base10exceptionsB8ue170006Ev, symObjAddr: 0xCB44, symBinAddr: 0x100015A08, symSize: 0x18 }
  - { offsetInCU: 0x20026, offset: 0x44A79, size: 0x8, addend: 0x0, symName: __ZNSt3__112basic_stringIcNS_11char_traitsIcEENS_9allocatorIcEEE13__get_pointerB8ue170006Ev, symObjAddr: 0xCB5C, symBinAddr: 0x100015A20, symSize: 0x54 }
  - { offsetInCU: 0x2004B, offset: 0x44A9E, size: 0x8, addend: 0x0, symName: __ZNKSt3__19basic_iosIcNS_11char_traitsIcEEE5widenB8ue170006Ec, symObjAddr: 0xCDE4, symBinAddr: 0x100015CA8, symSize: 0x84 }
  - { offsetInCU: 0x20080, offset: 0x44AD3, size: 0x8, addend: 0x0, symName: __ZNSt3__111char_traitsIcE2eqEcc, symObjAddr: 0xCE68, symBinAddr: 0x100015D2C, symSize: 0x28 }
  - { offsetInCU: 0x200B1, offset: 0x44B04, size: 0x8, addend: 0x0, symName: __ZNKSt3__15ctypeIcE5widenB8ue170006Ec, symObjAddr: 0xCE90, symBinAddr: 0x100015D54, symSize: 0x38 }
  - { offsetInCU: 0x200E5, offset: 0x44B38, size: 0x8, addend: 0x0, symName: __ZNSt3__19allocatorIcEC1B8ue170006Ev, symObjAddr: 0xCEC8, symBinAddr: 0x100015D8C, symSize: 0x2C }
  - { offsetInCU: 0x2010E, offset: 0x44B61, size: 0x8, addend: 0x0, symName: __ZNSt3__115basic_stringbufIcNS_11char_traitsIcEENS_9allocatorIcEEEC1B8ue170006ERKNS_12basic_stringIcS2_S4_EEj, symObjAddr: 0xCEF4, symBinAddr: 0x100015DB8, symSize: 0x3C }
  - { offsetInCU: 0x20155, offset: 0x44BA8, size: 0x8, addend: 0x0, symName: __ZNSt3__115basic_stringbufIcNS_11char_traitsIcEENS_9allocatorIcEEEC2B8ue170006ERKNS_12basic_stringIcS2_S4_EEj, symObjAddr: 0xCF30, symBinAddr: 0x100015DF4, symSize: 0xB4 }
  - { offsetInCU: 0x2019C, offset: 0x44BEF, size: 0x8, addend: 0x0, symName: __ZNKSt3__112basic_stringIcNS_11char_traitsIcEENS_9allocatorIcEEE13get_allocatorB8ue170006Ev, symObjAddr: 0xCFE4, symBinAddr: 0x100015EA8, symSize: 0x24 }
  - { offsetInCU: 0x201C1, offset: 0x44C14, size: 0x8, addend: 0x0, symName: __ZNSt3__112basic_stringIcNS_11char_traitsIcEENS_9allocatorIcEEEC1B8ue170006ERKS4_, symObjAddr: 0xD008, symBinAddr: 0x100015ECC, symSize: 0x34 }
  - { offsetInCU: 0x201F9, offset: 0x44C4C, size: 0x8, addend: 0x0, symName: __ZNSt3__112basic_stringIcNS_11char_traitsIcEENS_9allocatorIcEEEC2B8ue170006ERKS4_, symObjAddr: 0xD03C, symBinAddr: 0x100015F00, symSize: 0x48 }
  - { offsetInCU: 0x20231, offset: 0x44C84, size: 0x8, addend: 0x0, symName: __ZNSt3__117__compressed_pairINS_12basic_stringIcNS_11char_traitsIcEENS_9allocatorIcEEE5__repES5_EC1B8ue170006INS_18__default_init_tagERKS5_EEOT_OT0_, symObjAddr: 0xD084, symBinAddr: 0x100015F48, symSize: 0x3C }
  - { offsetInCU: 0x20288, offset: 0x44CDB, size: 0x8, addend: 0x0, symName: __ZNSt3__117__compressed_pairINS_12basic_stringIcNS_11char_traitsIcEENS_9allocatorIcEEE5__repES5_EC2B8ue170006INS_18__default_init_tagERKS5_EEOT_OT0_, symObjAddr: 0xD0C0, symBinAddr: 0x100015F84, symSize: 0x40 }
  - { offsetInCU: 0x202DF, offset: 0x44D32, size: 0x8, addend: 0x0, symName: __ZNSt3__122__compressed_pair_elemINS_9allocatorIcEELi1ELb1EEC2B8ue170006IRKS2_vEEOT_, symObjAddr: 0xD100, symBinAddr: 0x100015FC4, symSize: 0x18 }
  - { offsetInCU: 0x20320, offset: 0x44D73, size: 0x8, addend: 0x0, symName: __ZNSt3__113unordered_mapINS_12basic_stringIcNS_11char_traitsIcEENS_9allocatorIcEEEEP4CityNS_4hashIS6_EENS_8equal_toIS6_EENS4_INS_4pairIKS6_S8_EEEEEC2ERKSH_, symObjAddr: 0xD118, symBinAddr: 0x100015FDC, symSize: 0xA0 }
  - { offsetInCU: 0x2035A, offset: 0x44DAD, size: 0x8, addend: 0x0, symName: __ZNSt3__112__hash_tableINS_17__hash_value_typeINS_12basic_stringIcNS_11char_traitsIcEENS_9allocatorIcEEEEP4CityEENS_22__unordered_map_hasherIS7_SA_NS_4hashIS7_EENS_8equal_toIS7_EELb1EEENS_21__unordered_map_equalIS7_SA_SF_SD_Lb1EEENS5_ISA_EEEC1ERKSK_, symObjAddr: 0xD1B8, symBinAddr: 0x10001607C, symSize: 0x34 }
  - { offsetInCU: 0x20394, offset: 0x44DE7, size: 0x8, addend: 0x0, symName: __ZNKSt3__113unordered_mapINS_12basic_stringIcNS_11char_traitsIcEENS_9allocatorIcEEEEP4CityNS_4hashIS6_EENS_8equal_toIS6_EENS4_INS_4pairIKS6_S8_EEEEE12bucket_countB8ue170006Ev, symObjAddr: 0xD1EC, symBinAddr: 0x1000160B0, symSize: 0x24 }
  - { offsetInCU: 0x203B9, offset: 0x44E0C, size: 0x8, addend: 0x0, symName: __ZNSt3__113unordered_mapINS_12basic_stringIcNS_11char_traitsIcEENS_9allocatorIcEEEEP4CityNS_4hashIS6_EENS_8equal_toIS6_EENS4_INS_4pairIKS6_S8_EEEEE6insertINS_25__hash_map_const_iteratorINS_21__hash_const_iteratorIPNS_11__hash_nodeINS_17__hash_value_typeIS6_S8_EEPvEEEEEEEEvT_ST_, symObjAddr: 0xD210, symBinAddr: 0x1000160D4, symSize: 0x70 }
  - { offsetInCU: 0x20406, offset: 0x44E59, size: 0x8, addend: 0x0, symName: __ZNKSt3__113unordered_mapINS_12basic_stringIcNS_11char_traitsIcEENS_9allocatorIcEEEEP4CityNS_4hashIS6_EENS_8equal_toIS6_EENS4_INS_4pairIKS6_S8_EEEEE5beginB8ue170006Ev, symObjAddr: 0xD280, symBinAddr: 0x100016144, symSize: 0x38 }
  - { offsetInCU: 0x2042B, offset: 0x44E7E, size: 0x8, addend: 0x0, symName: __ZNSt3__112__hash_tableINS_17__hash_value_typeINS_12basic_stringIcNS_11char_traitsIcEENS_9allocatorIcEEEEP4CityEENS_22__unordered_map_hasherIS7_SA_NS_4hashIS7_EENS_8equal_toIS7_EELb1EEENS_21__unordered_map_equalIS7_SA_SF_SD_Lb1EEENS5_ISA_EEEC2ERKSK_, symObjAddr: 0xD2F0, symBinAddr: 0x10001617C, symSize: 0xEC }
  - { offsetInCU: 0x20465, offset: 0x44EB8, size: 0x8, addend: 0x0, symName: __ZNSt3__116allocator_traitsINS_9allocatorIPNS_16__hash_node_baseIPNS_11__hash_nodeINS_17__hash_value_typeINS_12basic_stringIcNS_11char_traitsIcEENS1_IcEEEEP4CityEEPvEEEEEEE37select_on_container_copy_constructionB8ue170006ISI_vvEESI_RKSI_, symObjAddr: 0xD3DC, symBinAddr: 0x100016268, symSize: 0x10 }
  - { offsetInCU: 0x20494, offset: 0x44EE7, size: 0x8, addend: 0x0, symName: __ZNKSt3__125__bucket_list_deallocatorINS_9allocatorIPNS_16__hash_node_baseIPNS_11__hash_nodeINS_17__hash_value_typeINS_12basic_stringIcNS_11char_traitsIcEENS1_IcEEEEP4CityEEPvEEEEEEE7__allocB8ue170006Ev, symObjAddr: 0xD3EC, symBinAddr: 0x100016278, symSize: 0x24 }
  - { offsetInCU: 0x204B9, offset: 0x44F0C, size: 0x8, addend: 0x0, symName: __ZNSt3__125__bucket_list_deallocatorINS_9allocatorIPNS_16__hash_node_baseIPNS_11__hash_nodeINS_17__hash_value_typeINS_12basic_stringIcNS_11char_traitsIcEENS1_IcEEEEP4CityEEPvEEEEEEEC1B8ue170006ERKSI_m, symObjAddr: 0xD410, symBinAddr: 0x10001629C, symSize: 0x3C }
  - { offsetInCU: 0x20500, offset: 0x44F53, size: 0x8, addend: 0x0, symName: __ZNSt3__110unique_ptrIA_PNS_16__hash_node_baseIPNS_11__hash_nodeINS_17__hash_value_typeINS_12basic_stringIcNS_11char_traitsIcEENS_9allocatorIcEEEEP4CityEEPvEEEENS_25__bucket_list_deallocatorINS7_ISH_EEEEEC1B8ue170006ILb1EvEEDnNS_16__dependent_typeINS_27__unique_ptr_deleter_sfinaeISL_EEXT_EE20__good_rval_ref_typeE, symObjAddr: 0xD44C, symBinAddr: 0x1000162D8, symSize: 0x3C }
  - { offsetInCU: 0x2054E, offset: 0x44FA1, size: 0x8, addend: 0x0, symName: __ZNSt3__116allocator_traitsINS_9allocatorINS_11__hash_nodeINS_17__hash_value_typeINS_12basic_stringIcNS_11char_traitsIcEENS1_IcEEEEP4CityEEPvEEEEE37select_on_container_copy_constructionB8ue170006ISE_vvEESE_RKSE_, symObjAddr: 0xD488, symBinAddr: 0x100016314, symSize: 0x10 }
  - { offsetInCU: 0x2057D, offset: 0x44FD0, size: 0x8, addend: 0x0, symName: __ZNKSt3__112__hash_tableINS_17__hash_value_typeINS_12basic_stringIcNS_11char_traitsIcEENS_9allocatorIcEEEEP4CityEENS_22__unordered_map_hasherIS7_SA_NS_4hashIS7_EENS_8equal_toIS7_EELb1EEENS_21__unordered_map_equalIS7_SA_SF_SD_Lb1EEENS5_ISA_EEE12__node_allocB8ue170006Ev, symObjAddr: 0xD498, symBinAddr: 0x100016324, symSize: 0x28 }
  - { offsetInCU: 0x205A7, offset: 0x44FFA, size: 0x8, addend: 0x0, symName: __ZNSt3__117__compressed_pairINS_16__hash_node_baseIPNS_11__hash_nodeINS_17__hash_value_typeINS_12basic_stringIcNS_11char_traitsIcEENS_9allocatorIcEEEEP4CityEEPvEEEENS7_ISE_EEEC1B8ue170006INS_18__default_init_tagESH_EEOT_OT0_, symObjAddr: 0xD4C0, symBinAddr: 0x10001634C, symSize: 0x3C }
  - { offsetInCU: 0x20603, offset: 0x45056, size: 0x8, addend: 0x0, symName: __ZNSt3__117__compressed_pairImNS_22__unordered_map_hasherINS_12basic_stringIcNS_11char_traitsIcEENS_9allocatorIcEEEENS_17__hash_value_typeIS7_P4CityEENS_4hashIS7_EENS_8equal_toIS7_EELb1EEEEC1B8ue170006IiRKSG_EEOT_OT0_, symObjAddr: 0xD524, symBinAddr: 0x100016388, symSize: 0x3C }
  - { offsetInCU: 0x2065A, offset: 0x450AD, size: 0x8, addend: 0x0, symName: __ZNKSt3__117__compressed_pairImNS_9allocatorIPNS_16__hash_node_baseIPNS_11__hash_nodeINS_17__hash_value_typeINS_12basic_stringIcNS_11char_traitsIcEENS1_IcEEEEP4CityEEPvEEEEEEE6secondB8ue170006Ev, symObjAddr: 0xD560, symBinAddr: 0x1000163C4, symSize: 0x24 }
  - { offsetInCU: 0x2067F, offset: 0x450D2, size: 0x8, addend: 0x0, symName: __ZNKSt3__122__compressed_pair_elemINS_9allocatorIPNS_16__hash_node_baseIPNS_11__hash_nodeINS_17__hash_value_typeINS_12basic_stringIcNS_11char_traitsIcEENS1_IcEEEEP4CityEEPvEEEEEELi1ELb1EE5__getB8ue170006Ev, symObjAddr: 0xD584, symBinAddr: 0x1000163E8, symSize: 0x14 }
  - { offsetInCU: 0x206A4, offset: 0x450F7, size: 0x8, addend: 0x0, symName: __ZNSt3__125__bucket_list_deallocatorINS_9allocatorIPNS_16__hash_node_baseIPNS_11__hash_nodeINS_17__hash_value_typeINS_12basic_stringIcNS_11char_traitsIcEENS1_IcEEEEP4CityEEPvEEEEEEEC2B8ue170006ERKSI_m, symObjAddr: 0xD598, symBinAddr: 0x1000163FC, symSize: 0x44 }
  - { offsetInCU: 0x206EB, offset: 0x4513E, size: 0x8, addend: 0x0, symName: __ZNSt3__117__compressed_pairImNS_9allocatorIPNS_16__hash_node_baseIPNS_11__hash_nodeINS_17__hash_value_typeINS_12basic_stringIcNS_11char_traitsIcEENS1_IcEEEEP4CityEEPvEEEEEEEC1B8ue170006IRmRKSI_EEOT_OT0_, symObjAddr: 0xD5DC, symBinAddr: 0x100016440, symSize: 0x3C }
  - { offsetInCU: 0x20742, offset: 0x45195, size: 0x8, addend: 0x0, symName: __ZNSt3__117__compressed_pairImNS_9allocatorIPNS_16__hash_node_baseIPNS_11__hash_nodeINS_17__hash_value_typeINS_12basic_stringIcNS_11char_traitsIcEENS1_IcEEEEP4CityEEPvEEEEEEEC2B8ue170006IRmRKSI_EEOT_OT0_, symObjAddr: 0xD618, symBinAddr: 0x10001647C, symSize: 0x44 }
  - { offsetInCU: 0x20799, offset: 0x451EC, size: 0x8, addend: 0x0, symName: __ZNSt3__122__compressed_pair_elemImLi0ELb0EEC2B8ue170006IRmvEEOT_, symObjAddr: 0xD65C, symBinAddr: 0x1000164C0, symSize: 0x24 }
  - { offsetInCU: 0x207DA, offset: 0x4522D, size: 0x8, addend: 0x0, symName: __ZNSt3__122__compressed_pair_elemINS_9allocatorIPNS_16__hash_node_baseIPNS_11__hash_nodeINS_17__hash_value_typeINS_12basic_stringIcNS_11char_traitsIcEENS1_IcEEEEP4CityEEPvEEEEEELi1ELb1EEC2B8ue170006IRKSI_vEEOT_, symObjAddr: 0xD680, symBinAddr: 0x1000164E4, symSize: 0x18 }
  - { offsetInCU: 0x2081B, offset: 0x4526E, size: 0x8, addend: 0x0, symName: __ZNSt3__110unique_ptrIA_PNS_16__hash_node_baseIPNS_11__hash_nodeINS_17__hash_value_typeINS_12basic_stringIcNS_11char_traitsIcEENS_9allocatorIcEEEEP4CityEEPvEEEENS_25__bucket_list_deallocatorINS7_ISH_EEEEEC2B8ue170006ILb1EvEEDnNS_16__dependent_typeINS_27__unique_ptr_deleter_sfinaeISL_EEXT_EE20__good_rval_ref_typeE, symObjAddr: 0xD698, symBinAddr: 0x1000164FC, symSize: 0x48 }
  - { offsetInCU: 0x20869, offset: 0x452BC, size: 0x8, addend: 0x0, symName: __ZNSt3__117__compressed_pairIPPNS_16__hash_node_baseIPNS_11__hash_nodeINS_17__hash_value_typeINS_12basic_stringIcNS_11char_traitsIcEENS_9allocatorIcEEEEP4CityEEPvEEEENS_25__bucket_list_deallocatorINS7_ISH_EEEEEC1B8ue170006IDnSL_EEOT_OT0_, symObjAddr: 0xD6E0, symBinAddr: 0x100016544, symSize: 0x3C }
  - { offsetInCU: 0x208C0, offset: 0x45313, size: 0x8, addend: 0x0, symName: __ZNSt3__117__compressed_pairIPPNS_16__hash_node_baseIPNS_11__hash_nodeINS_17__hash_value_typeINS_12basic_stringIcNS_11char_traitsIcEENS_9allocatorIcEEEEP4CityEEPvEEEENS_25__bucket_list_deallocatorINS7_ISH_EEEEEC2B8ue170006IDnSL_EEOT_OT0_, symObjAddr: 0xD71C, symBinAddr: 0x100016580, symSize: 0x48 }
  - { offsetInCU: 0x20917, offset: 0x4536A, size: 0x8, addend: 0x0, symName: __ZNSt3__122__compressed_pair_elemIPPNS_16__hash_node_baseIPNS_11__hash_nodeINS_17__hash_value_typeINS_12basic_stringIcNS_11char_traitsIcEENS_9allocatorIcEEEEP4CityEEPvEEEELi0ELb0EEC2B8ue170006IDnvEEOT_, symObjAddr: 0xD764, symBinAddr: 0x1000165C8, symSize: 0x1C }
  - { offsetInCU: 0x20958, offset: 0x453AB, size: 0x8, addend: 0x0, symName: __ZNSt3__122__compressed_pair_elemINS_25__bucket_list_deallocatorINS_9allocatorIPNS_16__hash_node_baseIPNS_11__hash_nodeINS_17__hash_value_typeINS_12basic_stringIcNS_11char_traitsIcEENS2_IcEEEEP4CityEEPvEEEEEEEELi1ELb0EEC2B8ue170006ISK_vEEOT_, symObjAddr: 0xD780, symBinAddr: 0x1000165E4, symSize: 0x34 }
  - { offsetInCU: 0x20999, offset: 0x453EC, size: 0x8, addend: 0x0, symName: __ZNSt3__125__bucket_list_deallocatorINS_9allocatorIPNS_16__hash_node_baseIPNS_11__hash_nodeINS_17__hash_value_typeINS_12basic_stringIcNS_11char_traitsIcEENS1_IcEEEEP4CityEEPvEEEEEEEC1B8ue170006EOSJ_, symObjAddr: 0xD7B4, symBinAddr: 0x100016618, symSize: 0x34 }
  - { offsetInCU: 0x209D1, offset: 0x45424, size: 0x8, addend: 0x0, symName: __ZNSt3__125__bucket_list_deallocatorINS_9allocatorIPNS_16__hash_node_baseIPNS_11__hash_nodeINS_17__hash_value_typeINS_12basic_stringIcNS_11char_traitsIcEENS1_IcEEEEP4CityEEPvEEEEEEEC2B8ue170006EOSJ_, symObjAddr: 0xD7E8, symBinAddr: 0x10001664C, symSize: 0x48 }
  - { offsetInCU: 0x20A09, offset: 0x4545C, size: 0x8, addend: 0x0, symName: __ZNKSt3__117__compressed_pairINS_16__hash_node_baseIPNS_11__hash_nodeINS_17__hash_value_typeINS_12basic_stringIcNS_11char_traitsIcEENS_9allocatorIcEEEEP4CityEEPvEEEENS7_ISE_EEE6secondB8ue170006Ev, symObjAddr: 0xD830, symBinAddr: 0x100016694, symSize: 0x24 }
  - { offsetInCU: 0x20A2E, offset: 0x45481, size: 0x8, addend: 0x0, symName: __ZNKSt3__122__compressed_pair_elemINS_9allocatorINS_11__hash_nodeINS_17__hash_value_typeINS_12basic_stringIcNS_11char_traitsIcEENS1_IcEEEEP4CityEEPvEEEELi1ELb1EE5__getB8ue170006Ev, symObjAddr: 0xD854, symBinAddr: 0x1000166B8, symSize: 0x14 }
  - { offsetInCU: 0x20A53, offset: 0x454A6, size: 0x8, addend: 0x0, symName: __ZNSt3__117__compressed_pairINS_16__hash_node_baseIPNS_11__hash_nodeINS_17__hash_value_typeINS_12basic_stringIcNS_11char_traitsIcEENS_9allocatorIcEEEEP4CityEEPvEEEENS7_ISE_EEEC2B8ue170006INS_18__default_init_tagESH_EEOT_OT0_, symObjAddr: 0xD868, symBinAddr: 0x1000166CC, symSize: 0x40 }
  - { offsetInCU: 0x20AAA, offset: 0x454FD, size: 0x8, addend: 0x0, symName: __ZNSt3__122__compressed_pair_elemINS_16__hash_node_baseIPNS_11__hash_nodeINS_17__hash_value_typeINS_12basic_stringIcNS_11char_traitsIcEENS_9allocatorIcEEEEP4CityEEPvEEEELi0ELb0EEC2B8ue170006ENS_18__default_init_tagE, symObjAddr: 0xD8A8, symBinAddr: 0x10001670C, symSize: 0x2C }
  - { offsetInCU: 0x20ADE, offset: 0x45531, size: 0x8, addend: 0x0, symName: __ZNSt3__122__compressed_pair_elemINS_9allocatorINS_11__hash_nodeINS_17__hash_value_typeINS_12basic_stringIcNS_11char_traitsIcEENS1_IcEEEEP4CityEEPvEEEELi1ELb1EEC2B8ue170006ISE_vEEOT_, symObjAddr: 0xD8D4, symBinAddr: 0x100016738, symSize: 0x18 }
  - { offsetInCU: 0x20B1F, offset: 0x45572, size: 0x8, addend: 0x0, symName: __ZNSt3__116__hash_node_baseIPNS_11__hash_nodeINS_17__hash_value_typeINS_12basic_stringIcNS_11char_traitsIcEENS_9allocatorIcEEEEP4CityEEPvEEEC1B8ue170006Ev, symObjAddr: 0xD8EC, symBinAddr: 0x100016750, symSize: 0x2C }
  - { offsetInCU: 0x20B48, offset: 0x4559B, size: 0x8, addend: 0x0, symName: __ZNSt3__116__hash_node_baseIPNS_11__hash_nodeINS_17__hash_value_typeINS_12basic_stringIcNS_11char_traitsIcEENS_9allocatorIcEEEEP4CityEEPvEEEC2B8ue170006Ev, symObjAddr: 0xD918, symBinAddr: 0x10001677C, symSize: 0x18 }
  - { offsetInCU: 0x20B71, offset: 0x455C4, size: 0x8, addend: 0x0, symName: __ZNSt3__117__compressed_pairImNS_22__unordered_map_hasherINS_12basic_stringIcNS_11char_traitsIcEENS_9allocatorIcEEEENS_17__hash_value_typeIS7_P4CityEENS_4hashIS7_EENS_8equal_toIS7_EELb1EEEEC2B8ue170006IiRKSG_EEOT_OT0_, symObjAddr: 0xD968, symBinAddr: 0x100016794, symSize: 0x44 }
  - { offsetInCU: 0x20BC8, offset: 0x4561B, size: 0x8, addend: 0x0, symName: __ZNSt3__122__compressed_pair_elemImLi0ELb0EEC2B8ue170006IivEEOT_, symObjAddr: 0xD9AC, symBinAddr: 0x1000167D8, symSize: 0x24 }
  - { offsetInCU: 0x20C09, offset: 0x4565C, size: 0x8, addend: 0x0, symName: __ZNSt3__122__compressed_pair_elemINS_22__unordered_map_hasherINS_12basic_stringIcNS_11char_traitsIcEENS_9allocatorIcEEEENS_17__hash_value_typeIS7_P4CityEENS_4hashIS7_EENS_8equal_toIS7_EELb1EEELi1ELb1EEC2B8ue170006IRKSG_vEEOT_, symObjAddr: 0xD9D0, symBinAddr: 0x1000167FC, symSize: 0x18 }
  - { offsetInCU: 0x20C4A, offset: 0x4569D, size: 0x8, addend: 0x0, symName: __ZNSt3__112__hash_tableINS_17__hash_value_typeINS_12basic_stringIcNS_11char_traitsIcEENS_9allocatorIcEEEEP4CityEENS_22__unordered_map_hasherIS7_SA_NS_4hashIS7_EENS_8equal_toIS7_EELb1EEENS_21__unordered_map_equalIS7_SA_SF_SD_Lb1EEENS5_ISA_EEE15__insert_uniqueB8ue170006ERKNS_4pairIKS7_S9_EE, symObjAddr: 0xDA18, symBinAddr: 0x100016844, symSize: 0x50 }
  - { offsetInCU: 0x20C7E, offset: 0x456D1, size: 0x8, addend: 0x0, symName: __ZNKSt3__125__hash_map_const_iteratorINS_21__hash_const_iteratorIPNS_11__hash_nodeINS_17__hash_value_typeINS_12basic_stringIcNS_11char_traitsIcEENS_9allocatorIcEEEEP4CityEEPvEEEEEdeB8ue170006Ev, symObjAddr: 0xDA68, symBinAddr: 0x100016894, symSize: 0x28 }
  - { offsetInCU: 0x20CA3, offset: 0x456F6, size: 0x8, addend: 0x0, symName: __ZNSt3__125__hash_map_const_iteratorINS_21__hash_const_iteratorIPNS_11__hash_nodeINS_17__hash_value_typeINS_12basic_stringIcNS_11char_traitsIcEENS_9allocatorIcEEEEP4CityEEPvEEEEEppB8ue170006Ev, symObjAddr: 0xDA90, symBinAddr: 0x1000168BC, symSize: 0x2C }
  - { offsetInCU: 0x20CC8, offset: 0x4571B, size: 0x8, addend: 0x0, symName: __ZNSt3__112__hash_tableINS_17__hash_value_typeINS_12basic_stringIcNS_11char_traitsIcEENS_9allocatorIcEEEEP4CityEENS_22__unordered_map_hasherIS7_SA_NS_4hashIS7_EENS_8equal_toIS7_EELb1EEENS_21__unordered_map_equalIS7_SA_SF_SD_Lb1EEENS5_ISA_EEE25__emplace_unique_key_argsIS7_JRKNS_4pairIKS7_S9_EEEEENSM_INS_15__hash_iteratorIPNS_11__hash_nodeISA_PvEEEEbEERKT_DpOT0_, symObjAddr: 0xDB20, symBinAddr: 0x10001691C, symSize: 0x4A0 }
  - { offsetInCU: 0x20DA7, offset: 0x457FA, size: 0x8, addend: 0x0, symName: __ZNSt3__122__hash_key_value_typesINS_17__hash_value_typeINS_12basic_stringIcNS_11char_traitsIcEENS_9allocatorIcEEEEP4CityEEE9__get_keyB8ue170006ERKNS_4pairIKS7_S9_EE, symObjAddr: 0xDFC0, symBinAddr: 0x100016DBC, symSize: 0x14 }
  - { offsetInCU: 0x20DCA, offset: 0x4581D, size: 0x8, addend: 0x0, symName: __ZNSt3__112__hash_tableINS_17__hash_value_typeINS_12basic_stringIcNS_11char_traitsIcEENS_9allocatorIcEEEEP4CityEENS_22__unordered_map_hasherIS7_SA_NS_4hashIS7_EENS_8equal_toIS7_EELb1EEENS_21__unordered_map_equalIS7_SA_SF_SD_Lb1EEENS5_ISA_EEE21__construct_node_hashIRKNS_4pairIKS7_S9_EEJEEENS_10unique_ptrINS_11__hash_nodeISA_PvEENS_22__hash_node_destructorINS5_ISU_EEEEEEmOT_DpOT0_, symObjAddr: 0xDFD4, symBinAddr: 0x100016DD0, symSize: 0x140 }
  - { offsetInCU: 0x20E3B, offset: 0x4588E, size: 0x8, addend: 0x0, symName: __ZNSt3__116allocator_traitsINS_9allocatorINS_11__hash_nodeINS_17__hash_value_typeINS_12basic_stringIcNS_11char_traitsIcEENS1_IcEEEEP4CityEEPvEEEEE9constructB8ue170006INS_4pairIKS8_SA_EEJRKSJ_EvEEvRSE_PT_DpOT0_, symObjAddr: 0xE114, symBinAddr: 0x100016F10, symSize: 0x34 }
  - { offsetInCU: 0x20E92, offset: 0x458E5, size: 0x8, addend: 0x0, symName: __ZNSt3__19allocatorINS_11__hash_nodeINS_17__hash_value_typeINS_12basic_stringIcNS_11char_traitsIcEENS0_IcEEEEP4CityEEPvEEE9constructB8ue170006INS_4pairIKS7_S9_EEJRKSH_EEEvPT_DpOT0_, symObjAddr: 0xE148, symBinAddr: 0x100016F44, symSize: 0x30 }
  - { offsetInCU: 0x20EE7, offset: 0x4593A, size: 0x8, addend: 0x0, symName: __ZNSt3__121__hash_const_iteratorIPNS_11__hash_nodeINS_17__hash_value_typeINS_12basic_stringIcNS_11char_traitsIcEENS_9allocatorIcEEEEP4CityEEPvEEEppB8ue170006Ev, symObjAddr: 0xE1BC, symBinAddr: 0x100016F74, symSize: 0x20 }
  - { offsetInCU: 0x20F0C, offset: 0x4595F, size: 0x8, addend: 0x0, symName: __ZNKSt3__112__hash_tableINS_17__hash_value_typeINS_12basic_stringIcNS_11char_traitsIcEENS_9allocatorIcEEEEP4CityEENS_22__unordered_map_hasherIS7_SA_NS_4hashIS7_EENS_8equal_toIS7_EELb1EEENS_21__unordered_map_equalIS7_SA_SF_SD_Lb1EEENS5_ISA_EEE5beginEv, symObjAddr: 0xE1DC, symBinAddr: 0x100016F94, symSize: 0x38 }
  - { offsetInCU: 0x20F32, offset: 0x45985, size: 0x8, addend: 0x0, symName: __ZNKSt3__117__compressed_pairINS_16__hash_node_baseIPNS_11__hash_nodeINS_17__hash_value_typeINS_12basic_stringIcNS_11char_traitsIcEENS_9allocatorIcEEEEP4CityEEPvEEEENS7_ISE_EEE5firstB8ue170006Ev, symObjAddr: 0xE248, symBinAddr: 0x100016FCC, symSize: 0x24 }
  - { offsetInCU: 0x20F57, offset: 0x459AA, size: 0x8, addend: 0x0, symName: __ZNKSt3__122__compressed_pair_elemINS_16__hash_node_baseIPNS_11__hash_nodeINS_17__hash_value_typeINS_12basic_stringIcNS_11char_traitsIcEENS_9allocatorIcEEEEP4CityEEPvEEEELi0ELb0EE5__getB8ue170006Ev, symObjAddr: 0xE2A0, symBinAddr: 0x100016FF0, symSize: 0x14 }
  - { offsetInCU: 0x20F7C, offset: 0x459CF, size: 0x8, addend: 0x0, symName: __ZNSt3__112__hash_tableINS_17__hash_value_typeINS_12basic_stringIcNS_11char_traitsIcEENS_9allocatorIcEEEEP4CityEENS_22__unordered_map_hasherIS7_SA_NS_4hashIS7_EENS_8equal_toIS7_EELb1EEENS_21__unordered_map_equalIS7_SA_SF_SD_Lb1EEENS5_ISA_EEE5beginEv, symObjAddr: 0xE320, symBinAddr: 0x100017004, symSize: 0x38 }
  - { offsetInCU: 0x20FA2, offset: 0x459F5, size: 0x8, addend: 0x0, symName: __ZNSt3__115__hash_iteratorIPNS_11__hash_nodeINS_17__hash_value_typeINS_12basic_stringIcNS_11char_traitsIcEENS_9allocatorIcEEEEP4CityEEPvEEEppB8ue170006Ev, symObjAddr: 0xE38C, symBinAddr: 0x100017070, symSize: 0x20 }
  - { offsetInCU: 0x20FC7, offset: 0x45A1A, size: 0x8, addend: 0x0, symName: __ZNSt3__15queueImNS_5dequeImNS_9allocatorImEEEEEC2B8ue170006Ev, symObjAddr: 0xE3AC, symBinAddr: 0x100017090, symSize: 0x2C }
  - { offsetInCU: 0x20FF0, offset: 0x45A43, size: 0x8, addend: 0x0, symName: __ZNSt3__15dequeImNS_9allocatorImEEEC1B8ue170006Ev, symObjAddr: 0xE3D8, symBinAddr: 0x1000170BC, symSize: 0x2C }
  - { offsetInCU: 0x21019, offset: 0x45A6C, size: 0x8, addend: 0x0, symName: __ZNSt3__15dequeImNS_9allocatorImEEEC2B8ue170006Ev, symObjAddr: 0xE404, symBinAddr: 0x1000170E8, symSize: 0x5C }
  - { offsetInCU: 0x21042, offset: 0x45A95, size: 0x8, addend: 0x0, symName: __ZNSt3__114__split_bufferIPmNS_9allocatorIS1_EEEC1B8ue170006Ev, symObjAddr: 0xE460, symBinAddr: 0x100017144, symSize: 0x2C }
  - { offsetInCU: 0x2106B, offset: 0x45ABE, size: 0x8, addend: 0x0, symName: __ZNSt3__117__compressed_pairImNS_9allocatorImEEEC1B8ue170006IiNS_18__default_init_tagEEEOT_OT0_, symObjAddr: 0xE48C, symBinAddr: 0x100017170, symSize: 0x3C }
  - { offsetInCU: 0x210C2, offset: 0x45B15, size: 0x8, addend: 0x0, symName: __ZNSt3__114__split_bufferIPmNS_9allocatorIS1_EEEC2B8ue170006Ev, symObjAddr: 0xE4C8, symBinAddr: 0x1000171AC, symSize: 0x50 }
  - { offsetInCU: 0x210EB, offset: 0x45B3E, size: 0x8, addend: 0x0, symName: __ZNSt3__117__compressed_pairIPPmNS_9allocatorIS1_EEEC1B8ue170006IDnNS_18__default_init_tagEEEOT_OT0_, symObjAddr: 0xE518, symBinAddr: 0x1000171FC, symSize: 0x3C }
  - { offsetInCU: 0x21142, offset: 0x45B95, size: 0x8, addend: 0x0, symName: __ZNSt3__117__compressed_pairIPPmNS_9allocatorIS1_EEEC2B8ue170006IDnNS_18__default_init_tagEEEOT_OT0_, symObjAddr: 0xE554, symBinAddr: 0x100017238, symSize: 0x40 }
  - { offsetInCU: 0x21199, offset: 0x45BEC, size: 0x8, addend: 0x0, symName: __ZNSt3__122__compressed_pair_elemIPPmLi0ELb0EEC2B8ue170006IDnvEEOT_, symObjAddr: 0xE594, symBinAddr: 0x100017278, symSize: 0x1C }
  - { offsetInCU: 0x211DA, offset: 0x45C2D, size: 0x8, addend: 0x0, symName: __ZNSt3__122__compressed_pair_elemINS_9allocatorIPmEELi1ELb1EEC2B8ue170006ENS_18__default_init_tagE, symObjAddr: 0xE5B0, symBinAddr: 0x100017294, symSize: 0x2C }
  - { offsetInCU: 0x2120E, offset: 0x45C61, size: 0x8, addend: 0x0, symName: __ZNSt3__19allocatorIPmEC2B8ue170006Ev, symObjAddr: 0xE5DC, symBinAddr: 0x1000172C0, symSize: 0x2C }
  - { offsetInCU: 0x21237, offset: 0x45C8A, size: 0x8, addend: 0x0, symName: __ZNSt3__116__non_trivial_ifILb1ENS_9allocatorIPmEEEC2B8ue170006Ev, symObjAddr: 0xE608, symBinAddr: 0x1000172EC, symSize: 0x14 }
  - { offsetInCU: 0x21260, offset: 0x45CB3, size: 0x8, addend: 0x0, symName: __ZNSt3__117__compressed_pairImNS_9allocatorImEEEC2B8ue170006IiNS_18__default_init_tagEEEOT_OT0_, symObjAddr: 0xE61C, symBinAddr: 0x100017300, symSize: 0x40 }
  - { offsetInCU: 0x212B7, offset: 0x45D0A, size: 0x8, addend: 0x0, symName: __ZNSt3__122__compressed_pair_elemINS_9allocatorImEELi1ELb1EEC2B8ue170006ENS_18__default_init_tagE, symObjAddr: 0xE65C, symBinAddr: 0x100017340, symSize: 0x2C }
  - { offsetInCU: 0x212EB, offset: 0x45D3E, size: 0x8, addend: 0x0, symName: __ZNSt3__19allocatorImEC2B8ue170006Ev, symObjAddr: 0xE688, symBinAddr: 0x10001736C, symSize: 0x2C }
  - { offsetInCU: 0x21314, offset: 0x45D67, size: 0x8, addend: 0x0, symName: __ZNSt3__116__non_trivial_ifILb1ENS_9allocatorImEEEC2B8ue170006Ev, symObjAddr: 0xE6B4, symBinAddr: 0x100017398, symSize: 0x14 }
  - { offsetInCU: 0x2133D, offset: 0x45D90, size: 0x8, addend: 0x0, symName: __ZNSt3__15dequeImNS_9allocatorImEEE9push_backERKm, symObjAddr: 0xE6C8, symBinAddr: 0x1000173AC, symSize: 0xAC }
  - { offsetInCU: 0x21381, offset: 0x45DD4, size: 0x8, addend: 0x0, symName: __ZNKSt3__15dequeImNS_9allocatorImEEE12__back_spareB8ue170006Ev, symObjAddr: 0xE774, symBinAddr: 0x100017458, symSize: 0x54 }
  - { offsetInCU: 0x213A6, offset: 0x45DF9, size: 0x8, addend: 0x0, symName: __ZNSt3__15dequeImNS_9allocatorImEEE19__add_back_capacityEv, symObjAddr: 0xE7C8, symBinAddr: 0x1000174AC, symSize: 0x34C }
  - { offsetInCU: 0x2145D, offset: 0x45EB0, size: 0x8, addend: 0x0, symName: __ZNKSt3__15dequeImNS_9allocatorImEEE24__annotate_increase_backB8ue170006Em, symObjAddr: 0xEB14, symBinAddr: 0x1000177F8, symSize: 0x7C }
  - { offsetInCU: 0x21491, offset: 0x45EE4, size: 0x8, addend: 0x0, symName: __ZNSt3__116allocator_traitsINS_9allocatorImEEE9constructB8ue170006ImJRKmEvEEvRS2_PT_DpOT0_, symObjAddr: 0xEB90, symBinAddr: 0x100017874, symSize: 0x34 }
  - { offsetInCU: 0x214E8, offset: 0x45F3B, size: 0x8, addend: 0x0, symName: __ZNKSt3__15dequeImNS_9allocatorImEEE10__capacityB8ue170006Ev, symObjAddr: 0xEBC4, symBinAddr: 0x1000178A8, symSize: 0x60 }
  - { offsetInCU: 0x2150D, offset: 0x45F60, size: 0x8, addend: 0x0, symName: __ZNKSt3__15dequeImNS_9allocatorImEEE13__front_spareB8ue170006Ev, symObjAddr: 0xEC24, symBinAddr: 0x100017908, symSize: 0x18 }
  - { offsetInCU: 0x21532, offset: 0x45F85, size: 0x8, addend: 0x0, symName: __ZNSt3__114__split_bufferIPmNS_9allocatorIS1_EEE9push_backB8ue170006ERKS1_, symObjAddr: 0xEC3C, symBinAddr: 0x100017920, symSize: 0x260 }
  - { offsetInCU: 0x215AA, offset: 0x45FFD, size: 0x8, addend: 0x0, symName: __ZNKSt3__114__split_bufferIPmNS_9allocatorIS1_EEE12__back_spareB8ue170006Ev, symObjAddr: 0xEE9C, symBinAddr: 0x100017B80, symSize: 0x40 }
  - { offsetInCU: 0x215CF, offset: 0x46022, size: 0x8, addend: 0x0, symName: __ZNSt3__114__split_bufferIPmNS_9allocatorIS1_EEE9push_backEOS1_, symObjAddr: 0xEEDC, symBinAddr: 0x100017BC0, symSize: 0x260 }
  - { offsetInCU: 0x21647, offset: 0x4609A, size: 0x8, addend: 0x0, symName: __ZNSt3__116allocator_traitsINS_9allocatorImEEE8allocateB8ue170006ERS2_m, symObjAddr: 0xF13C, symBinAddr: 0x100017E20, symSize: 0x2C }
  - { offsetInCU: 0x2167A, offset: 0x460CD, size: 0x8, addend: 0x0, symName: __ZNSt3__114__split_bufferIPmNS_9allocatorIS1_EEE10push_frontEOS1_, symObjAddr: 0xF168, symBinAddr: 0x100017E4C, symSize: 0x25C }
  - { offsetInCU: 0x216F2, offset: 0x46145, size: 0x8, addend: 0x0, symName: __ZNSt3__114__split_bufferIPmRNS_9allocatorIS1_EEEC1EmmS4_, symObjAddr: 0xF3C4, symBinAddr: 0x1000180A8, symSize: 0x44 }
  - { offsetInCU: 0x2174C, offset: 0x4619F, size: 0x8, addend: 0x0, symName: __ZNSt3__122__allocator_destructorINS_9allocatorImEEEC1B8ue170006ERS2_m, symObjAddr: 0xF408, symBinAddr: 0x1000180EC, symSize: 0x3C }
  - { offsetInCU: 0x2180E, offset: 0x46261, size: 0x8, addend: 0x0, symName: __ZNSt3__110unique_ptrIPmNS_22__allocator_destructorINS_9allocatorImEEEEEC1B8ue170006ILb1EvEES1_NS_16__dependent_typeINS_27__unique_ptr_deleter_sfinaeIS5_EEXT_EE20__good_rval_ref_typeE, symObjAddr: 0xF444, symBinAddr: 0x100018128, symSize: 0x3C }
  - { offsetInCU: 0x2185E, offset: 0x462B1, size: 0x8, addend: 0x0, symName: __ZNSt3__114__split_bufferIPmRNS_9allocatorIS1_EEE9push_backEOS1_, symObjAddr: 0xF480, symBinAddr: 0x100018164, symSize: 0x260 }
  - { offsetInCU: 0x218D6, offset: 0x46329, size: 0x8, addend: 0x0, symName: __ZNKSt3__110unique_ptrIPmNS_22__allocator_destructorINS_9allocatorImEEEEE3getB8ue170006Ev, symObjAddr: 0xF6E0, symBinAddr: 0x1000183C4, symSize: 0x28 }
  - { offsetInCU: 0x218FB, offset: 0x4634E, size: 0x8, addend: 0x0, symName: __ZNSt3__110unique_ptrIPmNS_22__allocator_destructorINS_9allocatorImEEEEE7releaseB8ue170006Ev, symObjAddr: 0xF708, symBinAddr: 0x1000183EC, symSize: 0x44 }
  - { offsetInCU: 0x2192F, offset: 0x46382, size: 0x8, addend: 0x0, symName: __ZNSt3__114__split_bufferIPmRNS_9allocatorIS1_EEE10push_frontERKS1_, symObjAddr: 0xF74C, symBinAddr: 0x100018430, symSize: 0x25C }
  - { offsetInCU: 0x219A7, offset: 0x463FA, size: 0x8, addend: 0x0, symName: __ZNSt3__114__split_bufferIPmNS_9allocatorIS1_EEE9__end_capB8ue170006Ev, symObjAddr: 0xF9E4, symBinAddr: 0x1000186C8, symSize: 0x28 }
  - { offsetInCU: 0x219CC, offset: 0x4641F, size: 0x8, addend: 0x0, symName: __ZNSt3__114__split_bufferIPmRNS_9allocatorIS1_EEE9__end_capB8ue170006Ev, symObjAddr: 0xFA0C, symBinAddr: 0x1000186F0, symSize: 0x28 }
  - { offsetInCU: 0x219F1, offset: 0x46444, size: 0x8, addend: 0x0, symName: __ZNSt3__110unique_ptrIPmNS_22__allocator_destructorINS_9allocatorImEEEEED1B8ue170006Ev, symObjAddr: 0xFA34, symBinAddr: 0x100018718, symSize: 0x2C }
  - { offsetInCU: 0x21A1A, offset: 0x4646D, size: 0x8, addend: 0x0, symName: __ZNSt3__114__split_bufferIPmRNS_9allocatorIS1_EEED1Ev, symObjAddr: 0xFA60, symBinAddr: 0x100018744, symSize: 0x2C }
  - { offsetInCU: 0x21A45, offset: 0x46498, size: 0x8, addend: 0x0, symName: __ZNSt3__114__split_bufferIPmRNS_9allocatorIS1_EEE18__construct_at_endINS_13move_iteratorIPS1_EEEENS_9enable_ifIXsr31__has_forward_iterator_categoryIT_EE5valueEvE4typeESB_SB_, symObjAddr: 0xFACC, symBinAddr: 0x1000187B0, symSize: 0x60 }
  - { offsetInCU: 0x21A90, offset: 0x464E3, size: 0x8, addend: 0x0, symName: __ZNSt3__113move_iteratorIPPmEC1B8ue170006ES2_, symObjAddr: 0xFB2C, symBinAddr: 0x100018810, symSize: 0x34 }
  - { offsetInCU: 0x21AC7, offset: 0x4651A, size: 0x8, addend: 0x0, symName: __ZNSt3__116allocator_traitsINS_9allocatorIPmEEE9constructB8ue170006IS2_JRKS2_EvEEvRS3_PT_DpOT0_, symObjAddr: 0xFB60, symBinAddr: 0x100018844, symSize: 0x34 }
  - { offsetInCU: 0x21B37, offset: 0x4658A, size: 0x8, addend: 0x0, symName: __ZNKSt3__114__move_trivialclB8ue170006IPmS2_Li0EEENS_4pairIPT_PT0_EES5_S5_S7_, symObjAddr: 0xFD30, symBinAddr: 0x100018A14, symSize: 0x48 }
  - { offsetInCU: 0x21BA3, offset: 0x465F6, size: 0x8, addend: 0x0, symName: __ZNSt3__14pairIPPmS2_EC1B8ue170006IRS2_S2_LPv0EEEOT_OT0_, symObjAddr: 0xFF58, symBinAddr: 0x100018C3C, symSize: 0x3C }
  - { offsetInCU: 0x21C00, offset: 0x46653, size: 0x8, addend: 0x0, symName: __ZNSt3__14pairIPPmS2_EC2B8ue170006IRS2_S2_LPv0EEEOT_OT0_, symObjAddr: 0xFF94, symBinAddr: 0x100018C78, symSize: 0x34 }
  - { offsetInCU: 0x21C5D, offset: 0x466B0, size: 0x8, addend: 0x0, symName: __ZNSt3__118__unwrap_iter_implIPPmLb1EE8__unwrapB8ue170006ES2_, symObjAddr: 0xFFC8, symBinAddr: 0x100018CAC, symSize: 0x24 }
  - { offsetInCU: 0x21C80, offset: 0x466D3, size: 0x8, addend: 0x0, symName: __ZNSt3__14pairIPPmS2_EC1B8ue170006IS2_S2_LPv0EEEOT_OT0_, symObjAddr: 0xFFEC, symBinAddr: 0x100018CD0, symSize: 0x3C }
  - { offsetInCU: 0x21CDD, offset: 0x46730, size: 0x8, addend: 0x0, symName: __ZNSt3__14pairIPPmS2_EC2B8ue170006IS2_S2_LPv0EEEOT_OT0_, symObjAddr: 0x10028, symBinAddr: 0x100018D0C, symSize: 0x34 }
  - { offsetInCU: 0x21D3A, offset: 0x4678D, size: 0x8, addend: 0x0, symName: __ZNSt3__118__unwrap_iter_implIPPmLb1EE8__rewrapB8ue170006ES2_S2_, symObjAddr: 0x1005C, symBinAddr: 0x100018D40, symSize: 0x50 }
  - { offsetInCU: 0x21D6B, offset: 0x467BE, size: 0x8, addend: 0x0, symName: __ZNSt3__114__split_bufferIPmRNS_9allocatorIS1_EEE28__construct_at_end_with_sizeINS_13move_iteratorIPS1_EEEEvT_m, symObjAddr: 0x100AC, symBinAddr: 0x100018D90, symSize: 0xDC }
  - { offsetInCU: 0x21DCF, offset: 0x46822, size: 0x8, addend: 0x0, symName: __ZNSt3__114__split_bufferIPmRNS_9allocatorIS1_EEE21_ConstructTransactionC1B8ue170006EPPS1_m, symObjAddr: 0x101C4, symBinAddr: 0x100018EA8, symSize: 0x3C }
  - { offsetInCU: 0x21E14, offset: 0x46867, size: 0x8, addend: 0x0, symName: __ZNSt3__116allocator_traitsINS_9allocatorIPmEEE9constructB8ue170006IS2_JS2_EvEEvRS3_PT_DpOT0_, symObjAddr: 0x10200, symBinAddr: 0x100018EE4, symSize: 0x34 }
  - { offsetInCU: 0x21E6B, offset: 0x468BE, size: 0x8, addend: 0x0, symName: __ZNSt3__114__split_bufferIPmRNS_9allocatorIS1_EEE7__allocB8ue170006Ev, symObjAddr: 0x10234, symBinAddr: 0x100018F18, symSize: 0x28 }
  - { offsetInCU: 0x21E90, offset: 0x468E3, size: 0x8, addend: 0x0, symName: __ZNKSt3__113move_iteratorIPPmEdeB8ue170006Ev, symObjAddr: 0x1025C, symBinAddr: 0x100018F40, symSize: 0x18 }
  - { offsetInCU: 0x21EB5, offset: 0x46908, size: 0x8, addend: 0x0, symName: __ZNSt3__113move_iteratorIPPmEppB8ue170006Ev, symObjAddr: 0x10274, symBinAddr: 0x100018F58, symSize: 0x20 }
  - { offsetInCU: 0x21EDA, offset: 0x4692D, size: 0x8, addend: 0x0, symName: __ZNSt3__114__split_bufferIPmRNS_9allocatorIS1_EEE21_ConstructTransactionD1B8ue170006Ev, symObjAddr: 0x10294, symBinAddr: 0x100018F78, symSize: 0x2C }
  - { offsetInCU: 0x21F03, offset: 0x46956, size: 0x8, addend: 0x0, symName: __ZNSt3__114__split_bufferIPmRNS_9allocatorIS1_EEE21_ConstructTransactionC2B8ue170006EPPS1_m, symObjAddr: 0x102C0, symBinAddr: 0x100018FA4, symSize: 0x44 }
  - { offsetInCU: 0x21F48, offset: 0x4699B, size: 0x8, addend: 0x0, symName: __ZNSt3__19allocatorIPmE9constructB8ue170006IS1_JS1_EEEvPT_DpOT0_, symObjAddr: 0x10304, symBinAddr: 0x100018FE8, symSize: 0x28 }
  - { offsetInCU: 0x21F9D, offset: 0x469F0, size: 0x8, addend: 0x0, symName: __ZNSt3__117__compressed_pairIPPmRNS_9allocatorIS1_EEE6secondB8ue170006Ev, symObjAddr: 0x1032C, symBinAddr: 0x100019010, symSize: 0x28 }
  - { offsetInCU: 0x21FC2, offset: 0x46A15, size: 0x8, addend: 0x0, symName: __ZNSt3__122__compressed_pair_elemIRNS_9allocatorIPmEELi1ELb0EE5__getB8ue170006Ev, symObjAddr: 0x10354, symBinAddr: 0x100019038, symSize: 0x18 }
  - { offsetInCU: 0x21FE7, offset: 0x46A3A, size: 0x8, addend: 0x0, symName: __ZNSt3__114__split_bufferIPmRNS_9allocatorIS1_EEE21_ConstructTransactionD2B8ue170006Ev, symObjAddr: 0x1036C, symBinAddr: 0x100019050, symSize: 0x20 }
  - { offsetInCU: 0x22010, offset: 0x46A63, size: 0x8, addend: 0x0, symName: __ZNKSt3__113move_iteratorIPPmE4baseB8ue170006Ev, symObjAddr: 0x10404, symBinAddr: 0x1000190E8, symSize: 0x18 }
  - { offsetInCU: 0x22035, offset: 0x46A88, size: 0x8, addend: 0x0, symName: __ZNSt3__113move_iteratorIPPmEC2B8ue170006ES2_, symObjAddr: 0x1041C, symBinAddr: 0x100019100, symSize: 0x20 }
  - { offsetInCU: 0x2206C, offset: 0x46ABF, size: 0x8, addend: 0x0, symName: __ZNSt3__19allocatorIPmE9constructB8ue170006IS1_JRKS1_EEEvPT_DpOT0_, symObjAddr: 0x1043C, symBinAddr: 0x100019120, symSize: 0x28 }
  - { offsetInCU: 0x220C1, offset: 0x46B14, size: 0x8, addend: 0x0, symName: __ZNSt3__19allocatorImE8allocateB8ue170006Em, symObjAddr: 0x10464, symBinAddr: 0x100019148, symSize: 0x58 }
  - { offsetInCU: 0x220FE, offset: 0x46B51, size: 0x8, addend: 0x0, symName: __ZNSt3__116allocator_traitsINS_9allocatorImEEE8max_sizeB8ue170006IS2_vEEmRKS2_, symObjAddr: 0x104BC, symBinAddr: 0x1000191A0, symSize: 0x24 }
  - { offsetInCU: 0x2212C, offset: 0x46B7F, size: 0x8, addend: 0x0, symName: __ZNKSt3__19allocatorImE8max_sizeB8ue170006Ev, symObjAddr: 0x104E0, symBinAddr: 0x1000191C4, symSize: 0x14 }
  - { offsetInCU: 0x22151, offset: 0x46BA4, size: 0x8, addend: 0x0, symName: __ZNKSt3__123__move_backward_trivialclB8ue170006IPmS2_Li0EEENS_4pairIPT_PT0_EES5_S5_S7_, symObjAddr: 0x10670, symBinAddr: 0x100019354, symSize: 0x48 }
  - { offsetInCU: 0x221B8, offset: 0x46C0B, size: 0x8, addend: 0x0, symName: __ZNSt3__14pairIPPmS2_EC1B8ue170006IRS2_S5_LPv0EEEOT_OT0_, symObjAddr: 0x10780, symBinAddr: 0x100019464, symSize: 0x3C }
  - { offsetInCU: 0x22215, offset: 0x46C68, size: 0x8, addend: 0x0, symName: __ZNSt3__14pairIPPmS2_EC2B8ue170006IRS2_S5_LPv0EEEOT_OT0_, symObjAddr: 0x107BC, symBinAddr: 0x1000194A0, symSize: 0x34 }
  - { offsetInCU: 0x22272, offset: 0x46CC5, size: 0x8, addend: 0x0, symName: __ZNSt3__114__split_bufferIPmRNS_9allocatorIS1_EEEC2EmmS4_, symObjAddr: 0x107F0, symBinAddr: 0x1000194D4, symSize: 0xD4 }
  - { offsetInCU: 0x222E5, offset: 0x46D38, size: 0x8, addend: 0x0, symName: __ZNSt3__117__compressed_pairIPPmRNS_9allocatorIS1_EEEC1B8ue170006IDnS5_EEOT_OT0_, symObjAddr: 0x108C4, symBinAddr: 0x1000195A8, symSize: 0x3C }
  - { offsetInCU: 0x2233C, offset: 0x46D8F, size: 0x8, addend: 0x0, symName: __ZNSt3__117__compressed_pairIPPmRNS_9allocatorIS1_EEEC2B8ue170006IDnS5_EEOT_OT0_, symObjAddr: 0x10940, symBinAddr: 0x100019624, symSize: 0x48 }
  - { offsetInCU: 0x22393, offset: 0x46DE6, size: 0x8, addend: 0x0, symName: __ZNSt3__122__compressed_pair_elemIRNS_9allocatorIPmEELi1ELb0EEC2B8ue170006IS4_vEEOT_, symObjAddr: 0x10988, symBinAddr: 0x10001966C, symSize: 0x20 }
  - { offsetInCU: 0x223D4, offset: 0x46E27, size: 0x8, addend: 0x0, symName: __ZNSt3__19allocatorIPmE8allocateB8ue170006Em, symObjAddr: 0x109A8, symBinAddr: 0x10001968C, symSize: 0x58 }
  - { offsetInCU: 0x22411, offset: 0x46E64, size: 0x8, addend: 0x0, symName: __ZNSt3__116allocator_traitsINS_9allocatorIPmEEE8max_sizeB8ue170006IS3_vEEmRKS3_, symObjAddr: 0x10A00, symBinAddr: 0x1000196E4, symSize: 0x24 }
  - { offsetInCU: 0x2243F, offset: 0x46E92, size: 0x8, addend: 0x0, symName: __ZNKSt3__19allocatorIPmE8max_sizeB8ue170006Ev, symObjAddr: 0x10A24, symBinAddr: 0x100019708, symSize: 0x14 }
  - { offsetInCU: 0x22464, offset: 0x46EB7, size: 0x8, addend: 0x0, symName: __ZNSt3__122__allocator_destructorINS_9allocatorImEEEC2B8ue170006ERS2_m, symObjAddr: 0x10A38, symBinAddr: 0x10001971C, symSize: 0x2C }
  - { offsetInCU: 0x224A9, offset: 0x46EFC, size: 0x8, addend: 0x0, symName: __ZNSt3__110unique_ptrIPmNS_22__allocator_destructorINS_9allocatorImEEEEEC2B8ue170006ILb1EvEES1_NS_16__dependent_typeINS_27__unique_ptr_deleter_sfinaeIS5_EEXT_EE20__good_rval_ref_typeE, symObjAddr: 0x10A64, symBinAddr: 0x100019748, symSize: 0x48 }
  - { offsetInCU: 0x224F9, offset: 0x46F4C, size: 0x8, addend: 0x0, symName: __ZNSt3__117__compressed_pairIPmNS_22__allocator_destructorINS_9allocatorImEEEEEC1B8ue170006IRS1_S5_EEOT_OT0_, symObjAddr: 0x10AAC, symBinAddr: 0x100019790, symSize: 0x3C }
  - { offsetInCU: 0x22550, offset: 0x46FA3, size: 0x8, addend: 0x0, symName: __ZNSt3__117__compressed_pairIPmNS_22__allocator_destructorINS_9allocatorImEEEEEC2B8ue170006IRS1_S5_EEOT_OT0_, symObjAddr: 0x10AE8, symBinAddr: 0x1000197CC, symSize: 0x48 }
  - { offsetInCU: 0x225A7, offset: 0x46FFA, size: 0x8, addend: 0x0, symName: __ZNSt3__122__compressed_pair_elemIPmLi0ELb0EEC2B8ue170006IRS1_vEEOT_, symObjAddr: 0x10B30, symBinAddr: 0x100019814, symSize: 0x24 }
  - { offsetInCU: 0x225E8, offset: 0x4703B, size: 0x8, addend: 0x0, symName: __ZNSt3__122__compressed_pair_elemINS_22__allocator_destructorINS_9allocatorImEEEELi1ELb0EEC2B8ue170006IS4_vEEOT_, symObjAddr: 0x10B54, symBinAddr: 0x100019838, symSize: 0x24 }
  - { offsetInCU: 0x22629, offset: 0x4707C, size: 0x8, addend: 0x0, symName: __ZNKSt3__117__compressed_pairIPmNS_22__allocator_destructorINS_9allocatorImEEEEE5firstB8ue170006Ev, symObjAddr: 0x10B78, symBinAddr: 0x10001985C, symSize: 0x24 }
  - { offsetInCU: 0x2264E, offset: 0x470A1, size: 0x8, addend: 0x0, symName: __ZNKSt3__122__compressed_pair_elemIPmLi0ELb0EE5__getB8ue170006Ev, symObjAddr: 0x10B9C, symBinAddr: 0x100019880, symSize: 0x14 }
  - { offsetInCU: 0x22673, offset: 0x470C6, size: 0x8, addend: 0x0, symName: __ZNSt3__117__compressed_pairIPmNS_22__allocator_destructorINS_9allocatorImEEEEE5firstB8ue170006Ev, symObjAddr: 0x10BB0, symBinAddr: 0x100019894, symSize: 0x24 }
  - { offsetInCU: 0x22698, offset: 0x470EB, size: 0x8, addend: 0x0, symName: __ZNSt3__122__compressed_pair_elemIPmLi0ELb0EE5__getB8ue170006Ev, symObjAddr: 0x10BD4, symBinAddr: 0x1000198B8, symSize: 0x14 }
  - { offsetInCU: 0x226BD, offset: 0x47110, size: 0x8, addend: 0x0, symName: __ZNSt3__117__compressed_pairIPPmNS_9allocatorIS1_EEE5firstB8ue170006Ev, symObjAddr: 0x10BE8, symBinAddr: 0x1000198CC, symSize: 0x24 }
  - { offsetInCU: 0x226E2, offset: 0x47135, size: 0x8, addend: 0x0, symName: __ZNSt3__122__compressed_pair_elemIPPmLi0ELb0EE5__getB8ue170006Ev, symObjAddr: 0x10C0C, symBinAddr: 0x1000198F0, symSize: 0x14 }
  - { offsetInCU: 0x22707, offset: 0x4715A, size: 0x8, addend: 0x0, symName: __ZNSt3__117__compressed_pairIPPmRNS_9allocatorIS1_EEE5firstB8ue170006Ev, symObjAddr: 0x10C20, symBinAddr: 0x100019904, symSize: 0x24 }
  - { offsetInCU: 0x2272C, offset: 0x4717F, size: 0x8, addend: 0x0, symName: __ZNSt3__110unique_ptrIPmNS_22__allocator_destructorINS_9allocatorImEEEEED2B8ue170006Ev, symObjAddr: 0x10C44, symBinAddr: 0x100019928, symSize: 0x30 }
  - { offsetInCU: 0x22755, offset: 0x471A8, size: 0x8, addend: 0x0, symName: __ZNSt3__110unique_ptrIPmNS_22__allocator_destructorINS_9allocatorImEEEEE5resetB8ue170006ES1_, symObjAddr: 0x10C74, symBinAddr: 0x100019958, symSize: 0x78 }
  - { offsetInCU: 0x22798, offset: 0x471EB, size: 0x8, addend: 0x0, symName: __ZNSt3__117__compressed_pairIPmNS_22__allocator_destructorINS_9allocatorImEEEEE6secondB8ue170006Ev, symObjAddr: 0x10CEC, symBinAddr: 0x1000199D0, symSize: 0x28 }
  - { offsetInCU: 0x227BD, offset: 0x47210, size: 0x8, addend: 0x0, symName: __ZNSt3__122__allocator_destructorINS_9allocatorImEEEclB8ue170006EPm, symObjAddr: 0x10D14, symBinAddr: 0x1000199F8, symSize: 0x34 }
  - { offsetInCU: 0x227F0, offset: 0x47243, size: 0x8, addend: 0x0, symName: __ZNSt3__122__compressed_pair_elemINS_22__allocator_destructorINS_9allocatorImEEEELi1ELb0EE5__getB8ue170006Ev, symObjAddr: 0x10D48, symBinAddr: 0x100019A2C, symSize: 0x14 }
  - { offsetInCU: 0x22815, offset: 0x47268, size: 0x8, addend: 0x0, symName: __ZNSt3__114__split_bufferIPmRNS_9allocatorIS1_EEED2Ev, symObjAddr: 0x10D5C, symBinAddr: 0x100019A40, symSize: 0x8C }
  - { offsetInCU: 0x22840, offset: 0x47293, size: 0x8, addend: 0x0, symName: __ZNSt3__114__split_bufferIPmRNS_9allocatorIS1_EEE5clearB8ue170006Ev, symObjAddr: 0x10DE8, symBinAddr: 0x100019ACC, symSize: 0x28 }
  - { offsetInCU: 0x22865, offset: 0x472B8, size: 0x8, addend: 0x0, symName: __ZNKSt3__114__split_bufferIPmRNS_9allocatorIS1_EEE8capacityB8ue170006Ev, symObjAddr: 0x10E10, symBinAddr: 0x100019AF4, symSize: 0x40 }
  - { offsetInCU: 0x2288A, offset: 0x472DD, size: 0x8, addend: 0x0, symName: __ZNSt3__114__split_bufferIPmRNS_9allocatorIS1_EEE17__destruct_at_endB8ue170006EPS1_, symObjAddr: 0x10E50, symBinAddr: 0x100019B34, symSize: 0x2C }
  - { offsetInCU: 0x228BD, offset: 0x47310, size: 0x8, addend: 0x0, symName: __ZNSt3__114__split_bufferIPmRNS_9allocatorIS1_EEE17__destruct_at_endB8ue170006EPS1_NS_17integral_constantIbLb0EEE, symObjAddr: 0x10E7C, symBinAddr: 0x100019B60, symSize: 0x80 }
  - { offsetInCU: 0x228FC, offset: 0x4734F, size: 0x8, addend: 0x0, symName: __ZNKSt3__114__split_bufferIPmRNS_9allocatorIS1_EEE9__end_capB8ue170006Ev, symObjAddr: 0x10EFC, symBinAddr: 0x100019BE0, symSize: 0x28 }
  - { offsetInCU: 0x22921, offset: 0x47374, size: 0x8, addend: 0x0, symName: __ZNKSt3__117__compressed_pairIPPmRNS_9allocatorIS1_EEE5firstB8ue170006Ev, symObjAddr: 0x10F24, symBinAddr: 0x100019C08, symSize: 0x24 }
  - { offsetInCU: 0x22946, offset: 0x47399, size: 0x8, addend: 0x0, symName: __ZNSt3__19allocatorImE9constructB8ue170006ImJRKmEEEvPT_DpOT0_, symObjAddr: 0x10F48, symBinAddr: 0x100019C2C, symSize: 0x28 }
  - { offsetInCU: 0x2299B, offset: 0x473EE, size: 0x8, addend: 0x0, symName: __ZNSt3__15dequeImNS_9allocatorImEEE5frontEv, symObjAddr: 0x10F70, symBinAddr: 0x100019C54, symSize: 0x50 }
  - { offsetInCU: 0x229C1, offset: 0x47414, size: 0x8, addend: 0x0, symName: __ZNSt3__15dequeImNS_9allocatorImEEE9pop_frontEv, symObjAddr: 0x10FC0, symBinAddr: 0x100019CA4, symSize: 0xD4 }
  - { offsetInCU: 0x22A14, offset: 0x47467, size: 0x8, addend: 0x0, symName: __ZNKSt3__15dequeImNS_9allocatorImEEE23__annotate_shrink_frontB8ue170006Emm, symObjAddr: 0x11094, symBinAddr: 0x100019D78, symSize: 0x70 }
  - { offsetInCU: 0x22A57, offset: 0x474AA, size: 0x8, addend: 0x0, symName: __ZNSt3__15dequeImNS_9allocatorImEEE26__maybe_remove_front_spareB8ue170006Eb, symObjAddr: 0x11104, symBinAddr: 0x100019DE8, symSize: 0xEC }
  - { offsetInCU: 0x22A8B, offset: 0x474DE, size: 0x8, addend: 0x0, symName: __ZNKSt3__15dequeImNS_9allocatorImEEE20__front_spare_blocksB8ue170006Ev, symObjAddr: 0x111F0, symBinAddr: 0x100019ED4, symSize: 0x2C }
  - { offsetInCU: 0x22AB0, offset: 0x47503, size: 0x8, addend: 0x0, symName: __ZNKSt3__16vectorIP4CityNS_9allocatorIS2_EEE6cbeginB8ue170006Ev, symObjAddr: 0x11264, symBinAddr: 0x100019F48, symSize: 0x2C }
  - { offsetInCU: 0x22AD5, offset: 0x47528, size: 0x8, addend: 0x0, symName: __ZNKSt3__16vectorIP4CityNS_9allocatorIS2_EEE5beginB8ue170006Ev, symObjAddr: 0x112DC, symBinAddr: 0x100019F74, symSize: 0x30 }
  - { offsetInCU: 0x22AFB, offset: 0x4754E, size: 0x8, addend: 0x0, symName: __ZNKSt3__16vectorIP4CityNS_9allocatorIS2_EEE11__make_iterB8ue170006EPKS2_, symObjAddr: 0x1130C, symBinAddr: 0x100019FA4, symSize: 0x30 }
  - { offsetInCU: 0x22B2F, offset: 0x47582, size: 0x8, addend: 0x0, symName: __ZNSt3__111__wrap_iterIPKP4CityEC1B8ue170006ES4_, symObjAddr: 0x1133C, symBinAddr: 0x100019FD4, symSize: 0x34 }
  - { offsetInCU: 0x22B66, offset: 0x475B9, size: 0x8, addend: 0x0, symName: __ZNSt3__111__wrap_iterIPKP4CityEC2B8ue170006ES4_, symObjAddr: 0x11370, symBinAddr: 0x10001A008, symSize: 0x20 }
  - { offsetInCU: 0x22B9D, offset: 0x475F0, size: 0x8, addend: 0x0, symName: __ZNSt3__16vectorIP4CityNS_9allocatorIS2_EEE21__push_back_slow_pathIRKS2_EEvOT_, symObjAddr: 0x11444, symBinAddr: 0x10001A028, symSize: 0xD8 }
  - { offsetInCU: 0xE8E5, offset: 0x5619E, size: 0x8, addend: 0x0, symName: __ZNSt3__122__make_exception_guardB8ue170006INS_6vectorIP4UnitNS_9allocatorIS3_EEE16__destroy_vectorEEENS_28__exception_guard_exceptionsIT_EES9_, symObjAddr: 0x8E4, symBinAddr: 0x10001A928, symSize: 0x40 }
  - { offsetInCU: 0xE91A, offset: 0x561D3, size: 0x8, addend: 0x0, symName: __ZNSt3__130__uninitialized_allocator_copyB8ue170006INS_9allocatorIP4UnitEEPS3_S5_S5_EET2_RT_T0_T1_S6_, symObjAddr: 0x1180, symBinAddr: 0x10001AB94, symSize: 0x80 }
  - { offsetInCU: 0xE9B7, offset: 0x56270, size: 0x8, addend: 0x0, symName: __ZNSt3__135__uninitialized_allocator_copy_implB8ue170006INS_9allocatorIP4UnitEES3_S3_S3_LPv0EEEPT2_RT_PT0_SB_S7_, symObjAddr: 0x12D0, symBinAddr: 0x10001AC14, symSize: 0x38 }
  - { offsetInCU: 0xEA38, offset: 0x562F1, size: 0x8, addend: 0x0, symName: __ZNSt3__14copyB8ue170006IPP4UnitS3_EET0_T_S5_S4_, symObjAddr: 0x1410, symBinAddr: 0x10001AC4C, symSize: 0x40 }
  - { offsetInCU: 0xEA92, offset: 0x5634B, size: 0x8, addend: 0x0, symName: __ZNSt3__16__copyB8ue170006INS_17_ClassicAlgPolicyEPP4UnitS4_S4_EENS_4pairIT0_T2_EES6_T1_S7_, symObjAddr: 0x1450, symBinAddr: 0x10001AC8C, symSize: 0x44 }
  - { offsetInCU: 0xEAFE, offset: 0x563B7, size: 0x8, addend: 0x0, symName: __ZNSt3__123__dispatch_copy_or_moveB8ue170006INS_17_ClassicAlgPolicyENS_11__copy_loopIS1_EENS_14__copy_trivialEPP4UnitS7_S7_EENS_4pairIT2_T4_EES9_T3_SA_, symObjAddr: 0x1494, symBinAddr: 0x10001ACD0, symSize: 0x44 }
  - { offsetInCU: 0xEB7C, offset: 0x56435, size: 0x8, addend: 0x0, symName: __ZNSt3__121__unwrap_and_dispatchB8ue170006INS_10__overloadINS_11__copy_loopINS_17_ClassicAlgPolicyEEENS_14__copy_trivialEEEPP4UnitS9_S9_Li0EEENS_4pairIT0_T2_EESB_T1_SC_, symObjAddr: 0x14D8, symBinAddr: 0x10001AD14, symSize: 0xB4 }
  - { offsetInCU: 0xECC8, offset: 0x56581, size: 0x8, addend: 0x0, symName: __ZNSt3__122__make_exception_guardB8ue170006INS_6vectorIP10ActionCardNS_9allocatorIS3_EEE16__destroy_vectorEEENS_28__exception_guard_exceptionsIT_EES9_, symObjAddr: 0x1E34, symBinAddr: 0x10001B1B0, symSize: 0x40 }
  - { offsetInCU: 0xECFD, offset: 0x565B6, size: 0x8, addend: 0x0, symName: __ZNSt3__119__allocate_at_leastB8ue170006INS_9allocatorIP10ActionCardEEEENS_19__allocation_resultINS_16allocator_traitsIT_E7pointerEEERS7_m, symObjAddr: 0x211C, symBinAddr: 0x10001B498, symSize: 0x40 }
  - { offsetInCU: 0xED40, offset: 0x565F9, size: 0x8, addend: 0x0, symName: __ZNSt3__112__to_addressB8ue170006IP10ActionCardEEPT_S4_, symObjAddr: 0x23E0, symBinAddr: 0x10001B75C, symSize: 0x14 }
  - { offsetInCU: 0xED75, offset: 0x5662E, size: 0x8, addend: 0x0, symName: __ZNSt3__130__uninitialized_allocator_copyB8ue170006INS_9allocatorIP10ActionCardEEPS3_S5_S5_EET2_RT_T0_T1_S6_, symObjAddr: 0x2490, symBinAddr: 0x10001B80C, symSize: 0x80 }
  - { offsetInCU: 0xEE12, offset: 0x566CB, size: 0x8, addend: 0x0, symName: __ZNSt3__114__unwrap_rangeB8ue170006IPP10ActionCardS3_EENS_4pairIT0_S5_EET_S7_, symObjAddr: 0x2580, symBinAddr: 0x10001B8FC, symSize: 0x60 }
  - { offsetInCU: 0xEE5E, offset: 0x56717, size: 0x8, addend: 0x0, symName: __ZNSt3__135__uninitialized_allocator_copy_implB8ue170006INS_9allocatorIP10ActionCardEES3_S3_S3_LPv0EEEPT2_RT_PT0_SB_S7_, symObjAddr: 0x25E0, symBinAddr: 0x10001B95C, symSize: 0x38 }
  - { offsetInCU: 0xEEDF, offset: 0x56798, size: 0x8, addend: 0x0, symName: __ZNSt3__113__unwrap_iterB8ue170006IPP10ActionCardNS_18__unwrap_iter_implIS3_Lb1EEELi0EEEDTclsrT0_8__unwrapclsr3stdE7declvalIT_EEEES7_, symObjAddr: 0x2618, symBinAddr: 0x10001B994, symSize: 0x24 }
  - { offsetInCU: 0xEF23, offset: 0x567DC, size: 0x8, addend: 0x0, symName: __ZNSt3__113__rewrap_iterB8ue170006IPP10ActionCardS3_NS_18__unwrap_iter_implIS3_Lb1EEEEET_S6_T0_, symObjAddr: 0x263C, symBinAddr: 0x10001B9B8, symSize: 0x3C }
  - { offsetInCU: 0xEF78, offset: 0x56831, size: 0x8, addend: 0x0, symName: __ZNSt3__19make_pairB8ue170006IPP10ActionCardS3_EENS_4pairINS_18__unwrap_ref_decayIT_E4typeENS5_IT0_E4typeEEEOS6_OS9_, symObjAddr: 0x2678, symBinAddr: 0x10001B9F4, symSize: 0x38 }
  - { offsetInCU: 0xF0CA, offset: 0x56983, size: 0x8, addend: 0x0, symName: __ZNSt3__14copyB8ue170006IPP10ActionCardS3_EET0_T_S5_S4_, symObjAddr: 0x2720, symBinAddr: 0x10001BA9C, symSize: 0x40 }
  - { offsetInCU: 0xF124, offset: 0x569DD, size: 0x8, addend: 0x0, symName: __ZNSt3__16__copyB8ue170006INS_17_ClassicAlgPolicyEPP10ActionCardS4_S4_EENS_4pairIT0_T2_EES6_T1_S7_, symObjAddr: 0x2760, symBinAddr: 0x10001BADC, symSize: 0x44 }
  - { offsetInCU: 0xF190, offset: 0x56A49, size: 0x8, addend: 0x0, symName: __ZNSt3__123__dispatch_copy_or_moveB8ue170006INS_17_ClassicAlgPolicyENS_11__copy_loopIS1_EENS_14__copy_trivialEPP10ActionCardS7_S7_EENS_4pairIT2_T4_EES9_T3_SA_, symObjAddr: 0x27A4, symBinAddr: 0x10001BB20, symSize: 0x44 }
  - { offsetInCU: 0xF20E, offset: 0x56AC7, size: 0x8, addend: 0x0, symName: __ZNSt3__121__unwrap_and_dispatchB8ue170006INS_10__overloadINS_11__copy_loopINS_17_ClassicAlgPolicyEEENS_14__copy_trivialEEEPP10ActionCardS9_S9_Li0EEENS_4pairIT0_T2_EESB_T1_SC_, symObjAddr: 0x27E8, symBinAddr: 0x10001BB64, symSize: 0xB4 }
  - { offsetInCU: 0xF29C, offset: 0x56B55, size: 0x8, addend: 0x0, symName: __ZNSt3__114__rewrap_rangeB8ue170006IPP10ActionCardS3_EET_S4_T0_, symObjAddr: 0x28E4, symBinAddr: 0x10001BC60, symSize: 0x2C }
  - { offsetInCU: 0xF2E8, offset: 0x56BA1, size: 0x8, addend: 0x0, symName: __ZNSt3__119__copy_trivial_implB8ue170006IP10ActionCardS2_EENS_4pairIPT_PT0_EES5_S5_S7_, symObjAddr: 0x2910, symBinAddr: 0x10001BC8C, symSize: 0x80 }
  - { offsetInCU: 0xF350, offset: 0x56C09, size: 0x8, addend: 0x0, symName: __ZNSt3__119__constexpr_memmoveB8ue170006IP10ActionCardS2_Li0EEEPT_S4_PT0_NS_15__element_countE, symObjAddr: 0x2990, symBinAddr: 0x10001BD0C, symSize: 0x64 }
  - { offsetInCU: 0xF3BE, offset: 0x56C77, size: 0x8, addend: 0x0, symName: __ZNSt3__19make_pairB8ue170006IRPP10ActionCardS3_EENS_4pairINS_18__unwrap_ref_decayIT_E4typeENS6_IT0_E4typeEEEOS7_OSA_, symObjAddr: 0x29F4, symBinAddr: 0x10001BD70, symSize: 0x38 }
  - { offsetInCU: 0xF460, offset: 0x56D19, size: 0x8, addend: 0x0, symName: __ZNSt3__122__make_exception_guardB8ue170006INS_6vectorIP14InvestmentCardNS_9allocatorIS3_EEE16__destroy_vectorEEENS_28__exception_guard_exceptionsIT_EES9_, symObjAddr: 0x30C8, symBinAddr: 0x10001C444, symSize: 0x40 }
  - { offsetInCU: 0xF495, offset: 0x56D4E, size: 0x8, addend: 0x0, symName: __ZNSt3__119__allocate_at_leastB8ue170006INS_9allocatorIP14InvestmentCardEEEENS_19__allocation_resultINS_16allocator_traitsIT_E7pointerEEERS7_m, symObjAddr: 0x33B0, symBinAddr: 0x10001C72C, symSize: 0x40 }
  - { offsetInCU: 0xF4D8, offset: 0x56D91, size: 0x8, addend: 0x0, symName: __ZNSt3__112__to_addressB8ue170006IP14InvestmentCardEEPT_S4_, symObjAddr: 0x3674, symBinAddr: 0x10001C9F0, symSize: 0x14 }
  - { offsetInCU: 0xF50D, offset: 0x56DC6, size: 0x8, addend: 0x0, symName: __ZNSt3__130__uninitialized_allocator_copyB8ue170006INS_9allocatorIP14InvestmentCardEEPS3_S5_S5_EET2_RT_T0_T1_S6_, symObjAddr: 0x3724, symBinAddr: 0x10001CAA0, symSize: 0x80 }
  - { offsetInCU: 0xF5AA, offset: 0x56E63, size: 0x8, addend: 0x0, symName: __ZNSt3__114__unwrap_rangeB8ue170006IPP14InvestmentCardS3_EENS_4pairIT0_S5_EET_S7_, symObjAddr: 0x3814, symBinAddr: 0x10001CB90, symSize: 0x60 }
  - { offsetInCU: 0xF5F6, offset: 0x56EAF, size: 0x8, addend: 0x0, symName: __ZNSt3__135__uninitialized_allocator_copy_implB8ue170006INS_9allocatorIP14InvestmentCardEES3_S3_S3_LPv0EEEPT2_RT_PT0_SB_S7_, symObjAddr: 0x3874, symBinAddr: 0x10001CBF0, symSize: 0x38 }
  - { offsetInCU: 0xF677, offset: 0x56F30, size: 0x8, addend: 0x0, symName: __ZNSt3__113__unwrap_iterB8ue170006IPP14InvestmentCardNS_18__unwrap_iter_implIS3_Lb1EEELi0EEEDTclsrT0_8__unwrapclsr3stdE7declvalIT_EEEES7_, symObjAddr: 0x38AC, symBinAddr: 0x10001CC28, symSize: 0x24 }
  - { offsetInCU: 0xF6BB, offset: 0x56F74, size: 0x8, addend: 0x0, symName: __ZNSt3__113__rewrap_iterB8ue170006IPP14InvestmentCardS3_NS_18__unwrap_iter_implIS3_Lb1EEEEET_S6_T0_, symObjAddr: 0x38D0, symBinAddr: 0x10001CC4C, symSize: 0x3C }
  - { offsetInCU: 0xF710, offset: 0x56FC9, size: 0x8, addend: 0x0, symName: __ZNSt3__19make_pairB8ue170006IPP14InvestmentCardS3_EENS_4pairINS_18__unwrap_ref_decayIT_E4typeENS5_IT0_E4typeEEEOS6_OS9_, symObjAddr: 0x390C, symBinAddr: 0x10001CC88, symSize: 0x38 }
  - { offsetInCU: 0xF862, offset: 0x5711B, size: 0x8, addend: 0x0, symName: __ZNSt3__14copyB8ue170006IPP14InvestmentCardS3_EET0_T_S5_S4_, symObjAddr: 0x39B4, symBinAddr: 0x10001CD30, symSize: 0x40 }
  - { offsetInCU: 0xF8BC, offset: 0x57175, size: 0x8, addend: 0x0, symName: __ZNSt3__16__copyB8ue170006INS_17_ClassicAlgPolicyEPP14InvestmentCardS4_S4_EENS_4pairIT0_T2_EES6_T1_S7_, symObjAddr: 0x39F4, symBinAddr: 0x10001CD70, symSize: 0x44 }
  - { offsetInCU: 0xF928, offset: 0x571E1, size: 0x8, addend: 0x0, symName: __ZNSt3__123__dispatch_copy_or_moveB8ue170006INS_17_ClassicAlgPolicyENS_11__copy_loopIS1_EENS_14__copy_trivialEPP14InvestmentCardS7_S7_EENS_4pairIT2_T4_EES9_T3_SA_, symObjAddr: 0x3A38, symBinAddr: 0x10001CDB4, symSize: 0x44 }
  - { offsetInCU: 0xF9A6, offset: 0x5725F, size: 0x8, addend: 0x0, symName: __ZNSt3__121__unwrap_and_dispatchB8ue170006INS_10__overloadINS_11__copy_loopINS_17_ClassicAlgPolicyEEENS_14__copy_trivialEEEPP14InvestmentCardS9_S9_Li0EEENS_4pairIT0_T2_EESB_T1_SC_, symObjAddr: 0x3A7C, symBinAddr: 0x10001CDF8, symSize: 0xB4 }
  - { offsetInCU: 0xFA34, offset: 0x572ED, size: 0x8, addend: 0x0, symName: __ZNSt3__114__rewrap_rangeB8ue170006IPP14InvestmentCardS3_EET_S4_T0_, symObjAddr: 0x3B78, symBinAddr: 0x10001CEF4, symSize: 0x2C }
  - { offsetInCU: 0xFA80, offset: 0x57339, size: 0x8, addend: 0x0, symName: __ZNSt3__119__copy_trivial_implB8ue170006IP14InvestmentCardS2_EENS_4pairIPT_PT0_EES5_S5_S7_, symObjAddr: 0x3BA4, symBinAddr: 0x10001CF20, symSize: 0x80 }
  - { offsetInCU: 0xFAE8, offset: 0x573A1, size: 0x8, addend: 0x0, symName: __ZNSt3__119__constexpr_memmoveB8ue170006IP14InvestmentCardS2_Li0EEEPT_S4_PT0_NS_15__element_countE, symObjAddr: 0x3C24, symBinAddr: 0x10001CFA0, symSize: 0x64 }
  - { offsetInCU: 0xFB56, offset: 0x5740F, size: 0x8, addend: 0x0, symName: __ZNSt3__19make_pairB8ue170006IRPP14InvestmentCardS3_EENS_4pairINS_18__unwrap_ref_decayIT_E4typeENS6_IT0_E4typeEEEOS7_OSA_, symObjAddr: 0x3C88, symBinAddr: 0x10001D004, symSize: 0x38 }
  - { offsetInCU: 0x132B6, offset: 0x5AB6F, size: 0x8, addend: 0x0, symName: __ZN6Runner7newNearEv, symObjAddr: 0x0, symBinAddr: 0x10001A100, symSize: 0x238 }
  - { offsetInCU: 0x13383, offset: 0x5AC3C, size: 0x8, addend: 0x0, symName: __ZN6PlayerC1ERKS_, symObjAddr: 0x238, symBinAddr: 0x10001A338, symSize: 0x34 }
  - { offsetInCU: 0x133B7, offset: 0x5AC70, size: 0x8, addend: 0x0, symName: __ZNK6Player5getVPEv, symObjAddr: 0x26C, symBinAddr: 0x10001A36C, symSize: 0x18 }
  - { offsetInCU: 0x133DC, offset: 0x5AC95, size: 0x8, addend: 0x0, symName: __ZN6PlayerD1Ev, symObjAddr: 0x29C, symBinAddr: 0x10001A384, symSize: 0x2C }
  - { offsetInCU: 0x13407, offset: 0x5ACC0, size: 0x8, addend: 0x0, symName: __ZN6Runner9reshuffleEv, symObjAddr: 0x2C8, symBinAddr: 0x10001A3B0, symSize: 0x10 }
  - { offsetInCU: 0x1342E, offset: 0x5ACE7, size: 0x8, addend: 0x0, symName: __ZN6Runner14peaceDividendsEv, symObjAddr: 0x2D8, symBinAddr: 0x10001A3C0, symSize: 0x10 }
  - { offsetInCU: 0x13455, offset: 0x5AD0E, size: 0x8, addend: 0x0, symName: __ZN6Runner10newYearResEv, symObjAddr: 0x2E8, symBinAddr: 0x10001A3D0, symSize: 0x10 }
  - { offsetInCU: 0x1347C, offset: 0x5AD35, size: 0x8, addend: 0x0, symName: __ZN6Runner10productionEv, symObjAddr: 0x2F8, symBinAddr: 0x10001A3E0, symSize: 0x68 }
  - { offsetInCU: 0x134B1, offset: 0x5AD6A, size: 0x8, addend: 0x0, symName: __ZN6Runner10governmentEv, symObjAddr: 0x360, symBinAddr: 0x10001A448, symSize: 0x10 }
  - { offsetInCU: 0x134D8, offset: 0x5AD91, size: 0x8, addend: 0x0, symName: __ZNK6Player11getHandSizeEv, symObjAddr: 0x370, symBinAddr: 0x10001A458, symSize: 0x48 }
  - { offsetInCU: 0x134FD, offset: 0x5ADB6, size: 0x8, addend: 0x0, symName: __ZNK6Player10getMaxCardEv, symObjAddr: 0x3B8, symBinAddr: 0x10001A4A0, symSize: 0x18 }
  - { offsetInCU: 0x13522, offset: 0x5ADDB, size: 0x8, addend: 0x0, symName: __ZN6Runner9handCheckEP6Player, symObjAddr: 0x3D0, symBinAddr: 0x10001A4B8, symSize: 0x14 }
  - { offsetInCU: 0x13556, offset: 0x5AE0F, size: 0x8, addend: 0x0, symName: __ZN6Runner6springEv, symObjAddr: 0x3E4, symBinAddr: 0x10001A4CC, symSize: 0x10 }
  - { offsetInCU: 0x1357D, offset: 0x5AE36, size: 0x8, addend: 0x0, symName: __ZN6Runner6summerEv, symObjAddr: 0x3F4, symBinAddr: 0x10001A4DC, symSize: 0x10 }
  - { offsetInCU: 0x135A4, offset: 0x5AE5D, size: 0x8, addend: 0x0, symName: __ZN6Runner8blockadeEv, symObjAddr: 0x404, symBinAddr: 0x10001A4EC, symSize: 0x10 }
  - { offsetInCU: 0x135CB, offset: 0x5AE84, size: 0x8, addend: 0x0, symName: __ZN6Runner4fallEv, symObjAddr: 0x414, symBinAddr: 0x10001A4FC, symSize: 0x10 }
  - { offsetInCU: 0x135F2, offset: 0x5AEAB, size: 0x8, addend: 0x0, symName: __ZN6Runner6winterEv, symObjAddr: 0x424, symBinAddr: 0x10001A50C, symSize: 0x10 }
  - { offsetInCU: 0x13619, offset: 0x5AED2, size: 0x8, addend: 0x0, symName: __ZN6PlayerC2ERKS_, symObjAddr: 0x434, symBinAddr: 0x10001A51C, symSize: 0x124 }
  - { offsetInCU: 0x1364D, offset: 0x5AF06, size: 0x8, addend: 0x0, symName: __ZNSt3__16vectorIP4UnitNS_9allocatorIS2_EEEC1ERKS5_, symObjAddr: 0x558, symBinAddr: 0x10001A640, symSize: 0x34 }
  - { offsetInCU: 0x13687, offset: 0x5AF40, size: 0x8, addend: 0x0, symName: __ZNSt3__16vectorIP10ActionCardNS_9allocatorIS2_EEEC1ERKS5_, symObjAddr: 0x58C, symBinAddr: 0x10001A674, symSize: 0x34 }
  - { offsetInCU: 0x136C1, offset: 0x5AF7A, size: 0x8, addend: 0x0, symName: __ZNSt3__16vectorIP14InvestmentCardNS_9allocatorIS2_EEEC1ERKS5_, symObjAddr: 0x5C0, symBinAddr: 0x10001A6A8, symSize: 0x34 }
  - { offsetInCU: 0x136FB, offset: 0x5AFB4, size: 0x8, addend: 0x0, symName: __ZNSt3__16vectorIP10ActionCardNS_9allocatorIS2_EEED1B8ue170006Ev, symObjAddr: 0x5F4, symBinAddr: 0x10001A6DC, symSize: 0x2C }
  - { offsetInCU: 0x13724, offset: 0x5AFDD, size: 0x8, addend: 0x0, symName: __ZNSt3__16vectorIP4UnitNS_9allocatorIS2_EEED1B8ue170006Ev, symObjAddr: 0x620, symBinAddr: 0x10001A708, symSize: 0x2C }
  - { offsetInCU: 0x1374D, offset: 0x5B006, size: 0x8, addend: 0x0, symName: __ZNSt3__16vectorIP4UnitNS_9allocatorIS2_EEEC2ERKS5_, symObjAddr: 0x64C, symBinAddr: 0x10001A734, symSize: 0x94 }
  - { offsetInCU: 0x13791, offset: 0x5B04A, size: 0x8, addend: 0x0, symName: __ZNSt3__116allocator_traitsINS_9allocatorIP4UnitEEE37select_on_container_copy_constructionB8ue170006IS4_vvEES4_RKS4_, symObjAddr: 0x6E0, symBinAddr: 0x10001A7C8, symSize: 0x10 }
  - { offsetInCU: 0x137CA, offset: 0x5B083, size: 0x8, addend: 0x0, symName: __ZNSt3__117__compressed_pairIPP4UnitNS_9allocatorIS2_EEEC1B8ue170006IDnS5_EEOT_OT0_, symObjAddr: 0x718, symBinAddr: 0x10001A7D8, symSize: 0x3C }
  - { offsetInCU: 0x13821, offset: 0x5B0DA, size: 0x8, addend: 0x0, symName: __ZNSt3__16vectorIP4UnitNS_9allocatorIS2_EEE16__init_with_sizeB8ue170006IPS2_S7_EEvT_T0_m, symObjAddr: 0x754, symBinAddr: 0x10001A814, symSize: 0xB8 }
  - { offsetInCU: 0x13894, offset: 0x5B14D, size: 0x8, addend: 0x0, symName: __ZNSt3__117__compressed_pairIPP4UnitNS_9allocatorIS2_EEEC2B8ue170006IDnS5_EEOT_OT0_, symObjAddr: 0x86C, symBinAddr: 0x10001A8CC, symSize: 0x44 }
  - { offsetInCU: 0x138EB, offset: 0x5B1A4, size: 0x8, addend: 0x0, symName: __ZNSt3__122__compressed_pair_elemINS_9allocatorIP4UnitEELi1ELb1EEC2B8ue170006IS4_vEEOT_, symObjAddr: 0x8CC, symBinAddr: 0x10001A910, symSize: 0x18 }
  - { offsetInCU: 0x1392C, offset: 0x5B1E5, size: 0x8, addend: 0x0, symName: __ZNSt3__16vectorIP4UnitNS_9allocatorIS2_EEE16__destroy_vectorC1B8ue170006ERS5_, symObjAddr: 0x924, symBinAddr: 0x10001A968, symSize: 0x34 }
  - { offsetInCU: 0x13964, offset: 0x5B21D, size: 0x8, addend: 0x0, symName: __ZNSt3__16vectorIP4UnitNS_9allocatorIS2_EEE11__vallocateB8ue170006Em, symObjAddr: 0x958, symBinAddr: 0x10001A99C, symSize: 0xAC }
  - { offsetInCU: 0x139A7, offset: 0x5B260, size: 0x8, addend: 0x0, symName: __ZNSt3__16vectorIP4UnitNS_9allocatorIS2_EEE18__construct_at_endIPS2_S7_EEvT_T0_m, symObjAddr: 0xA04, symBinAddr: 0x10001AA48, symSize: 0x8C }
  - { offsetInCU: 0x13A1B, offset: 0x5B2D4, size: 0x8, addend: 0x0, symName: __ZNSt3__128__exception_guard_exceptionsINS_6vectorIP4UnitNS_9allocatorIS3_EEE16__destroy_vectorEE10__completeB8ue170006Ev, symObjAddr: 0xA90, symBinAddr: 0x10001AAD4, symSize: 0x1C }
  - { offsetInCU: 0x13A40, offset: 0x5B2F9, size: 0x8, addend: 0x0, symName: __ZNSt3__128__exception_guard_exceptionsINS_6vectorIP4UnitNS_9allocatorIS3_EEE16__destroy_vectorEED1B8ue170006Ev, symObjAddr: 0xAAC, symBinAddr: 0x10001AAF0, symSize: 0x2C }
  - { offsetInCU: 0x13A69, offset: 0x5B322, size: 0x8, addend: 0x0, symName: __ZNSt3__128__exception_guard_exceptionsINS_6vectorIP4UnitNS_9allocatorIS3_EEE16__destroy_vectorEEC1B8ue170006ES7_, symObjAddr: 0xAD8, symBinAddr: 0x10001AB1C, symSize: 0x34 }
  - { offsetInCU: 0x13AA0, offset: 0x5B359, size: 0x8, addend: 0x0, symName: __ZNSt3__128__exception_guard_exceptionsINS_6vectorIP4UnitNS_9allocatorIS3_EEE16__destroy_vectorEEC2B8ue170006ES7_, symObjAddr: 0xB0C, symBinAddr: 0x10001AB50, symSize: 0x24 }
  - { offsetInCU: 0x13AD7, offset: 0x5B390, size: 0x8, addend: 0x0, symName: __ZNSt3__16vectorIP4UnitNS_9allocatorIS2_EEE16__destroy_vectorC2B8ue170006ERS5_, symObjAddr: 0xB30, symBinAddr: 0x10001AB74, symSize: 0x20 }
  - { offsetInCU: 0x13B32, offset: 0x5B3EB, size: 0x8, addend: 0x0, symName: __ZNKSt3__114__copy_trivialclB8ue170006IP4UnitS3_Li0EEENS_4pairIPT_PT0_EES6_S6_S8_, symObjAddr: 0x158C, symBinAddr: 0x10001ADC8, symSize: 0x48 }
  - { offsetInCU: 0x13B99, offset: 0x5B452, size: 0x8, addend: 0x0, symName: __ZNSt3__128__exception_guard_exceptionsINS_6vectorIP4UnitNS_9allocatorIS3_EEE16__destroy_vectorEED2B8ue170006Ev, symObjAddr: 0x1820, symBinAddr: 0x10001AE10, symSize: 0x50 }
  - { offsetInCU: 0x13BC2, offset: 0x5B47B, size: 0x8, addend: 0x0, symName: __ZNSt3__16vectorIP4UnitNS_9allocatorIS2_EEE16__destroy_vectorclB8ue170006Ev, symObjAddr: 0x1870, symBinAddr: 0x10001AE60, symSize: 0x90 }
  - { offsetInCU: 0x13BE7, offset: 0x5B4A0, size: 0x8, addend: 0x0, symName: __ZNSt3__16vectorIP4UnitNS_9allocatorIS2_EEE7__clearB8ue170006Ev, symObjAddr: 0x1900, symBinAddr: 0x10001AEF0, symSize: 0x28 }
  - { offsetInCU: 0x13C0C, offset: 0x5B4C5, size: 0x8, addend: 0x0, symName: __ZNSt3__16vectorIP10ActionCardNS_9allocatorIS2_EEEC2ERKS5_, symObjAddr: 0x1B9C, symBinAddr: 0x10001AF18, symSize: 0x94 }
  - { offsetInCU: 0x13C50, offset: 0x5B509, size: 0x8, addend: 0x0, symName: __ZNSt3__116allocator_traitsINS_9allocatorIP10ActionCardEEE37select_on_container_copy_constructionB8ue170006IS4_vvEES4_RKS4_, symObjAddr: 0x1C30, symBinAddr: 0x10001AFAC, symSize: 0x10 }
  - { offsetInCU: 0x13C7F, offset: 0x5B538, size: 0x8, addend: 0x0, symName: __ZNKSt3__16vectorIP10ActionCardNS_9allocatorIS2_EEE7__allocB8ue170006Ev, symObjAddr: 0x1C40, symBinAddr: 0x10001AFBC, symSize: 0x28 }
  - { offsetInCU: 0x13CA9, offset: 0x5B562, size: 0x8, addend: 0x0, symName: __ZNSt3__117__compressed_pairIPP10ActionCardNS_9allocatorIS2_EEEC1B8ue170006IDnS5_EEOT_OT0_, symObjAddr: 0x1C68, symBinAddr: 0x10001AFE4, symSize: 0x3C }
  - { offsetInCU: 0x13D00, offset: 0x5B5B9, size: 0x8, addend: 0x0, symName: __ZNSt3__16vectorIP10ActionCardNS_9allocatorIS2_EEE16__init_with_sizeB8ue170006IPS2_S7_EEvT_T0_m, symObjAddr: 0x1CA4, symBinAddr: 0x10001B020, symSize: 0xB8 }
  - { offsetInCU: 0x13D73, offset: 0x5B62C, size: 0x8, addend: 0x0, symName: __ZNKSt3__16vectorIP10ActionCardNS_9allocatorIS2_EEE4sizeB8ue170006Ev, symObjAddr: 0x1D5C, symBinAddr: 0x10001B0D8, symSize: 0x28 }
  - { offsetInCU: 0x13D98, offset: 0x5B651, size: 0x8, addend: 0x0, symName: __ZNKSt3__117__compressed_pairIPP10ActionCardNS_9allocatorIS2_EEE6secondB8ue170006Ev, symObjAddr: 0x1D84, symBinAddr: 0x10001B100, symSize: 0x24 }
  - { offsetInCU: 0x13DBD, offset: 0x5B676, size: 0x8, addend: 0x0, symName: __ZNKSt3__122__compressed_pair_elemINS_9allocatorIP10ActionCardEELi1ELb1EE5__getB8ue170006Ev, symObjAddr: 0x1DA8, symBinAddr: 0x10001B124, symSize: 0x14 }
  - { offsetInCU: 0x13DE2, offset: 0x5B69B, size: 0x8, addend: 0x0, symName: __ZNSt3__117__compressed_pairIPP10ActionCardNS_9allocatorIS2_EEEC2B8ue170006IDnS5_EEOT_OT0_, symObjAddr: 0x1DBC, symBinAddr: 0x10001B138, symSize: 0x44 }
  - { offsetInCU: 0x13E39, offset: 0x5B6F2, size: 0x8, addend: 0x0, symName: __ZNSt3__122__compressed_pair_elemIPP10ActionCardLi0ELb0EEC2B8ue170006IDnvEEOT_, symObjAddr: 0x1E00, symBinAddr: 0x10001B17C, symSize: 0x1C }
  - { offsetInCU: 0x13E7A, offset: 0x5B733, size: 0x8, addend: 0x0, symName: __ZNSt3__122__compressed_pair_elemINS_9allocatorIP10ActionCardEELi1ELb1EEC2B8ue170006IS4_vEEOT_, symObjAddr: 0x1E1C, symBinAddr: 0x10001B198, symSize: 0x18 }
  - { offsetInCU: 0x13EBB, offset: 0x5B774, size: 0x8, addend: 0x0, symName: __ZNSt3__16vectorIP10ActionCardNS_9allocatorIS2_EEE16__destroy_vectorC1B8ue170006ERS5_, symObjAddr: 0x1E74, symBinAddr: 0x10001B1F0, symSize: 0x34 }
  - { offsetInCU: 0x13EF3, offset: 0x5B7AC, size: 0x8, addend: 0x0, symName: __ZNSt3__16vectorIP10ActionCardNS_9allocatorIS2_EEE11__vallocateB8ue170006Em, symObjAddr: 0x1EA8, symBinAddr: 0x10001B224, symSize: 0xAC }
  - { offsetInCU: 0x13F36, offset: 0x5B7EF, size: 0x8, addend: 0x0, symName: __ZNSt3__16vectorIP10ActionCardNS_9allocatorIS2_EEE18__construct_at_endIPS2_S7_EEvT_T0_m, symObjAddr: 0x1F54, symBinAddr: 0x10001B2D0, symSize: 0x8C }
  - { offsetInCU: 0x13FAA, offset: 0x5B863, size: 0x8, addend: 0x0, symName: __ZNSt3__128__exception_guard_exceptionsINS_6vectorIP10ActionCardNS_9allocatorIS3_EEE16__destroy_vectorEE10__completeB8ue170006Ev, symObjAddr: 0x1FE0, symBinAddr: 0x10001B35C, symSize: 0x1C }
  - { offsetInCU: 0x13FCF, offset: 0x5B888, size: 0x8, addend: 0x0, symName: __ZNSt3__128__exception_guard_exceptionsINS_6vectorIP10ActionCardNS_9allocatorIS3_EEE16__destroy_vectorEED1B8ue170006Ev, symObjAddr: 0x1FFC, symBinAddr: 0x10001B378, symSize: 0x2C }
  - { offsetInCU: 0x13FF8, offset: 0x5B8B1, size: 0x8, addend: 0x0, symName: __ZNSt3__128__exception_guard_exceptionsINS_6vectorIP10ActionCardNS_9allocatorIS3_EEE16__destroy_vectorEEC1B8ue170006ES7_, symObjAddr: 0x2028, symBinAddr: 0x10001B3A4, symSize: 0x34 }
  - { offsetInCU: 0x1402F, offset: 0x5B8E8, size: 0x8, addend: 0x0, symName: __ZNSt3__128__exception_guard_exceptionsINS_6vectorIP10ActionCardNS_9allocatorIS3_EEE16__destroy_vectorEEC2B8ue170006ES7_, symObjAddr: 0x205C, symBinAddr: 0x10001B3D8, symSize: 0x24 }
  - { offsetInCU: 0x14066, offset: 0x5B91F, size: 0x8, addend: 0x0, symName: __ZNSt3__16vectorIP10ActionCardNS_9allocatorIS2_EEE16__destroy_vectorC2B8ue170006ERS5_, symObjAddr: 0x2080, symBinAddr: 0x10001B3FC, symSize: 0x20 }
  - { offsetInCU: 0x1409E, offset: 0x5B957, size: 0x8, addend: 0x0, symName: __ZNKSt3__16vectorIP10ActionCardNS_9allocatorIS2_EEE8max_sizeEv, symObjAddr: 0x20A0, symBinAddr: 0x10001B41C, symSize: 0x60 }
  - { offsetInCU: 0x140C4, offset: 0x5B97D, size: 0x8, addend: 0x0, symName: __ZNKSt3__16vectorIP10ActionCardNS_9allocatorIS2_EEE20__throw_length_errorB8ue170006Ev, symObjAddr: 0x2100, symBinAddr: 0x10001B47C, symSize: 0x1C }
  - { offsetInCU: 0x140E9, offset: 0x5B9A2, size: 0x8, addend: 0x0, symName: __ZNSt3__16vectorIP10ActionCardNS_9allocatorIS2_EEE7__allocB8ue170006Ev, symObjAddr: 0x215C, symBinAddr: 0x10001B4D8, symSize: 0x28 }
  - { offsetInCU: 0x1410E, offset: 0x5B9C7, size: 0x8, addend: 0x0, symName: __ZNSt3__16vectorIP10ActionCardNS_9allocatorIS2_EEE9__end_capB8ue170006Ev, symObjAddr: 0x2184, symBinAddr: 0x10001B500, symSize: 0x28 }
  - { offsetInCU: 0x14133, offset: 0x5B9EC, size: 0x8, addend: 0x0, symName: __ZNKSt3__16vectorIP10ActionCardNS_9allocatorIS2_EEE14__annotate_newB8ue170006Em, symObjAddr: 0x21AC, symBinAddr: 0x10001B528, symSize: 0xAC }
  - { offsetInCU: 0x14167, offset: 0x5BA20, size: 0x8, addend: 0x0, symName: __ZNSt3__116allocator_traitsINS_9allocatorIP10ActionCardEEE8max_sizeB8ue170006IS4_vEEmRKS4_, symObjAddr: 0x2258, symBinAddr: 0x10001B5D4, symSize: 0x24 }
  - { offsetInCU: 0x14195, offset: 0x5BA4E, size: 0x8, addend: 0x0, symName: __ZNKSt3__19allocatorIP10ActionCardE8max_sizeB8ue170006Ev, symObjAddr: 0x227C, symBinAddr: 0x10001B5F8, symSize: 0x14 }
  - { offsetInCU: 0x141BA, offset: 0x5BA73, size: 0x8, addend: 0x0, symName: __ZNSt3__19allocatorIP10ActionCardE8allocateB8ue170006Em, symObjAddr: 0x2290, symBinAddr: 0x10001B60C, symSize: 0x58 }
  - { offsetInCU: 0x141ED, offset: 0x5BAA6, size: 0x8, addend: 0x0, symName: __ZNSt3__117__compressed_pairIPP10ActionCardNS_9allocatorIS2_EEE6secondB8ue170006Ev, symObjAddr: 0x22E8, symBinAddr: 0x10001B664, symSize: 0x24 }
  - { offsetInCU: 0x14212, offset: 0x5BACB, size: 0x8, addend: 0x0, symName: __ZNSt3__122__compressed_pair_elemINS_9allocatorIP10ActionCardEELi1ELb1EE5__getB8ue170006Ev, symObjAddr: 0x230C, symBinAddr: 0x10001B688, symSize: 0x14 }
  - { offsetInCU: 0x14237, offset: 0x5BAF0, size: 0x8, addend: 0x0, symName: __ZNSt3__117__compressed_pairIPP10ActionCardNS_9allocatorIS2_EEE5firstB8ue170006Ev, symObjAddr: 0x2320, symBinAddr: 0x10001B69C, symSize: 0x24 }
  - { offsetInCU: 0x1425C, offset: 0x5BB15, size: 0x8, addend: 0x0, symName: __ZNSt3__122__compressed_pair_elemIPP10ActionCardLi0ELb0EE5__getB8ue170006Ev, symObjAddr: 0x2344, symBinAddr: 0x10001B6C0, symSize: 0x14 }
  - { offsetInCU: 0x14281, offset: 0x5BB3A, size: 0x8, addend: 0x0, symName: __ZNKSt3__16vectorIP10ActionCardNS_9allocatorIS2_EEE31__annotate_contiguous_containerB8ue170006EPKvS7_S7_S7_, symObjAddr: 0x2358, symBinAddr: 0x10001B6D4, symSize: 0x20 }
  - { offsetInCU: 0x142D2, offset: 0x5BB8B, size: 0x8, addend: 0x0, symName: __ZNKSt3__16vectorIP10ActionCardNS_9allocatorIS2_EEE4dataB8ue170006Ev, symObjAddr: 0x2378, symBinAddr: 0x10001B6F4, symSize: 0x28 }
  - { offsetInCU: 0x142F7, offset: 0x5BBB0, size: 0x8, addend: 0x0, symName: __ZNKSt3__16vectorIP10ActionCardNS_9allocatorIS2_EEE8capacityB8ue170006Ev, symObjAddr: 0x23A0, symBinAddr: 0x10001B71C, symSize: 0x40 }
  - { offsetInCU: 0x1431C, offset: 0x5BBD5, size: 0x8, addend: 0x0, symName: __ZNKSt3__16vectorIP10ActionCardNS_9allocatorIS2_EEE9__end_capB8ue170006Ev, symObjAddr: 0x23F4, symBinAddr: 0x10001B770, symSize: 0x28 }
  - { offsetInCU: 0x14341, offset: 0x5BBFA, size: 0x8, addend: 0x0, symName: __ZNKSt3__117__compressed_pairIPP10ActionCardNS_9allocatorIS2_EEE5firstB8ue170006Ev, symObjAddr: 0x241C, symBinAddr: 0x10001B798, symSize: 0x24 }
  - { offsetInCU: 0x14366, offset: 0x5BC1F, size: 0x8, addend: 0x0, symName: __ZNKSt3__122__compressed_pair_elemIPP10ActionCardLi0ELb0EE5__getB8ue170006Ev, symObjAddr: 0x2440, symBinAddr: 0x10001B7BC, symSize: 0x14 }
  - { offsetInCU: 0x143A4, offset: 0x5BC5D, size: 0x8, addend: 0x0, symName: __ZNSt3__16vectorIP10ActionCardNS_9allocatorIS2_EEE21_ConstructTransactionC1B8ue170006ERS5_m, symObjAddr: 0x2454, symBinAddr: 0x10001B7D0, symSize: 0x3C }
  - { offsetInCU: 0x143EB, offset: 0x5BCA4, size: 0x8, addend: 0x0, symName: __ZNSt3__16vectorIP10ActionCardNS_9allocatorIS2_EEE21_ConstructTransactionD1B8ue170006Ev, symObjAddr: 0x2510, symBinAddr: 0x10001B88C, symSize: 0x2C }
  - { offsetInCU: 0x14414, offset: 0x5BCCD, size: 0x8, addend: 0x0, symName: __ZNSt3__16vectorIP10ActionCardNS_9allocatorIS2_EEE21_ConstructTransactionC2B8ue170006ERS5_m, symObjAddr: 0x253C, symBinAddr: 0x10001B8B8, symSize: 0x44 }
  - { offsetInCU: 0x14479, offset: 0x5BD32, size: 0x8, addend: 0x0, symName: __ZNSt3__14pairIPP10ActionCardS3_EC1B8ue170006IS3_S3_LPv0EEEOT_OT0_, symObjAddr: 0x26B0, symBinAddr: 0x10001BA2C, symSize: 0x3C }
  - { offsetInCU: 0x144D6, offset: 0x5BD8F, size: 0x8, addend: 0x0, symName: __ZNSt3__14pairIPP10ActionCardS3_EC2B8ue170006IS3_S3_LPv0EEEOT_OT0_, symObjAddr: 0x26EC, symBinAddr: 0x10001BA68, symSize: 0x34 }
  - { offsetInCU: 0x14533, offset: 0x5BDEC, size: 0x8, addend: 0x0, symName: __ZNKSt3__114__copy_trivialclB8ue170006IP10ActionCardS3_Li0EEENS_4pairIPT_PT0_EES6_S6_S8_, symObjAddr: 0x289C, symBinAddr: 0x10001BC18, symSize: 0x48 }
  - { offsetInCU: 0x1459A, offset: 0x5BE53, size: 0x8, addend: 0x0, symName: __ZNSt3__14pairIPP10ActionCardS3_EC1B8ue170006IRS3_S3_LPv0EEEOT_OT0_, symObjAddr: 0x2A2C, symBinAddr: 0x10001BDA8, symSize: 0x3C }
  - { offsetInCU: 0x145F7, offset: 0x5BEB0, size: 0x8, addend: 0x0, symName: __ZNSt3__14pairIPP10ActionCardS3_EC2B8ue170006IRS3_S3_LPv0EEEOT_OT0_, symObjAddr: 0x2A68, symBinAddr: 0x10001BDE4, symSize: 0x34 }
  - { offsetInCU: 0x14654, offset: 0x5BF0D, size: 0x8, addend: 0x0, symName: __ZNSt3__118__unwrap_iter_implIPP10ActionCardLb1EE8__unwrapB8ue170006ES3_, symObjAddr: 0x2A9C, symBinAddr: 0x10001BE18, symSize: 0x24 }
  - { offsetInCU: 0x14677, offset: 0x5BF30, size: 0x8, addend: 0x0, symName: __ZNSt3__118__unwrap_iter_implIPP10ActionCardLb1EE8__rewrapB8ue170006ES3_S3_, symObjAddr: 0x2AC0, symBinAddr: 0x10001BE3C, symSize: 0x50 }
  - { offsetInCU: 0x146A8, offset: 0x5BF61, size: 0x8, addend: 0x0, symName: __ZNSt3__16vectorIP10ActionCardNS_9allocatorIS2_EEE21_ConstructTransactionD2B8ue170006Ev, symObjAddr: 0x2B10, symBinAddr: 0x10001BE8C, symSize: 0x20 }
  - { offsetInCU: 0x146D1, offset: 0x5BF8A, size: 0x8, addend: 0x0, symName: __ZNSt3__128__exception_guard_exceptionsINS_6vectorIP10ActionCardNS_9allocatorIS3_EEE16__destroy_vectorEED2B8ue170006Ev, symObjAddr: 0x2B30, symBinAddr: 0x10001BEAC, symSize: 0x50 }
  - { offsetInCU: 0x146FA, offset: 0x5BFB3, size: 0x8, addend: 0x0, symName: __ZNSt3__16vectorIP10ActionCardNS_9allocatorIS2_EEE16__destroy_vectorclB8ue170006Ev, symObjAddr: 0x2B80, symBinAddr: 0x10001BEFC, symSize: 0x90 }
  - { offsetInCU: 0x1471F, offset: 0x5BFD8, size: 0x8, addend: 0x0, symName: __ZNSt3__16vectorIP10ActionCardNS_9allocatorIS2_EEE7__clearB8ue170006Ev, symObjAddr: 0x2C10, symBinAddr: 0x10001BF8C, symSize: 0x28 }
  - { offsetInCU: 0x14744, offset: 0x5BFFD, size: 0x8, addend: 0x0, symName: __ZNKSt3__16vectorIP10ActionCardNS_9allocatorIS2_EEE17__annotate_deleteB8ue170006Ev, symObjAddr: 0x2C38, symBinAddr: 0x10001BFB4, symSize: 0xB8 }
  - { offsetInCU: 0x14769, offset: 0x5C022, size: 0x8, addend: 0x0, symName: __ZNSt3__116allocator_traitsINS_9allocatorIP10ActionCardEEE10deallocateB8ue170006ERS4_PS3_m, symObjAddr: 0x2CF0, symBinAddr: 0x10001C06C, symSize: 0x34 }
  - { offsetInCU: 0x147AB, offset: 0x5C064, size: 0x8, addend: 0x0, symName: __ZNSt3__16vectorIP10ActionCardNS_9allocatorIS2_EEE22__base_destruct_at_endB8ue170006EPS2_, symObjAddr: 0x2D24, symBinAddr: 0x10001C0A0, symSize: 0x8C }
  - { offsetInCU: 0x147EE, offset: 0x5C0A7, size: 0x8, addend: 0x0, symName: __ZNSt3__116allocator_traitsINS_9allocatorIP10ActionCardEEE7destroyB8ue170006IS3_vEEvRS4_PT_, symObjAddr: 0x2DB0, symBinAddr: 0x10001C12C, symSize: 0x2C }
  - { offsetInCU: 0x1482B, offset: 0x5C0E4, size: 0x8, addend: 0x0, symName: __ZNSt3__19allocatorIP10ActionCardE7destroyB8ue170006EPS2_, symObjAddr: 0x2DDC, symBinAddr: 0x10001C158, symSize: 0x14 }
  - { offsetInCU: 0x1485E, offset: 0x5C117, size: 0x8, addend: 0x0, symName: __ZNSt3__19allocatorIP10ActionCardE10deallocateB8ue170006EPS2_m, symObjAddr: 0x2DF0, symBinAddr: 0x10001C16C, symSize: 0x40 }
  - { offsetInCU: 0x1489F, offset: 0x5C158, size: 0x8, addend: 0x0, symName: __ZNSt3__16vectorIP14InvestmentCardNS_9allocatorIS2_EEEC2ERKS5_, symObjAddr: 0x2E30, symBinAddr: 0x10001C1AC, symSize: 0x94 }
  - { offsetInCU: 0x148E3, offset: 0x5C19C, size: 0x8, addend: 0x0, symName: __ZNSt3__116allocator_traitsINS_9allocatorIP14InvestmentCardEEE37select_on_container_copy_constructionB8ue170006IS4_vvEES4_RKS4_, symObjAddr: 0x2EC4, symBinAddr: 0x10001C240, symSize: 0x10 }
  - { offsetInCU: 0x14912, offset: 0x5C1CB, size: 0x8, addend: 0x0, symName: __ZNKSt3__16vectorIP14InvestmentCardNS_9allocatorIS2_EEE7__allocB8ue170006Ev, symObjAddr: 0x2ED4, symBinAddr: 0x10001C250, symSize: 0x28 }
  - { offsetInCU: 0x1493C, offset: 0x5C1F5, size: 0x8, addend: 0x0, symName: __ZNSt3__117__compressed_pairIPP14InvestmentCardNS_9allocatorIS2_EEEC1B8ue170006IDnS5_EEOT_OT0_, symObjAddr: 0x2EFC, symBinAddr: 0x10001C278, symSize: 0x3C }
  - { offsetInCU: 0x14993, offset: 0x5C24C, size: 0x8, addend: 0x0, symName: __ZNSt3__16vectorIP14InvestmentCardNS_9allocatorIS2_EEE16__init_with_sizeB8ue170006IPS2_S7_EEvT_T0_m, symObjAddr: 0x2F38, symBinAddr: 0x10001C2B4, symSize: 0xB8 }
  - { offsetInCU: 0x14A06, offset: 0x5C2BF, size: 0x8, addend: 0x0, symName: __ZNKSt3__16vectorIP14InvestmentCardNS_9allocatorIS2_EEE4sizeB8ue170006Ev, symObjAddr: 0x2FF0, symBinAddr: 0x10001C36C, symSize: 0x28 }
  - { offsetInCU: 0x14A2B, offset: 0x5C2E4, size: 0x8, addend: 0x0, symName: __ZNKSt3__117__compressed_pairIPP14InvestmentCardNS_9allocatorIS2_EEE6secondB8ue170006Ev, symObjAddr: 0x3018, symBinAddr: 0x10001C394, symSize: 0x24 }
  - { offsetInCU: 0x14A50, offset: 0x5C309, size: 0x8, addend: 0x0, symName: __ZNKSt3__122__compressed_pair_elemINS_9allocatorIP14InvestmentCardEELi1ELb1EE5__getB8ue170006Ev, symObjAddr: 0x303C, symBinAddr: 0x10001C3B8, symSize: 0x14 }
  - { offsetInCU: 0x14A75, offset: 0x5C32E, size: 0x8, addend: 0x0, symName: __ZNSt3__117__compressed_pairIPP14InvestmentCardNS_9allocatorIS2_EEEC2B8ue170006IDnS5_EEOT_OT0_, symObjAddr: 0x3050, symBinAddr: 0x10001C3CC, symSize: 0x44 }
  - { offsetInCU: 0x14ACC, offset: 0x5C385, size: 0x8, addend: 0x0, symName: __ZNSt3__122__compressed_pair_elemIPP14InvestmentCardLi0ELb0EEC2B8ue170006IDnvEEOT_, symObjAddr: 0x3094, symBinAddr: 0x10001C410, symSize: 0x1C }
  - { offsetInCU: 0x14B0D, offset: 0x5C3C6, size: 0x8, addend: 0x0, symName: __ZNSt3__122__compressed_pair_elemINS_9allocatorIP14InvestmentCardEELi1ELb1EEC2B8ue170006IS4_vEEOT_, symObjAddr: 0x30B0, symBinAddr: 0x10001C42C, symSize: 0x18 }
  - { offsetInCU: 0x14B4E, offset: 0x5C407, size: 0x8, addend: 0x0, symName: __ZNSt3__16vectorIP14InvestmentCardNS_9allocatorIS2_EEE16__destroy_vectorC1B8ue170006ERS5_, symObjAddr: 0x3108, symBinAddr: 0x10001C484, symSize: 0x34 }
  - { offsetInCU: 0x14B86, offset: 0x5C43F, size: 0x8, addend: 0x0, symName: __ZNSt3__16vectorIP14InvestmentCardNS_9allocatorIS2_EEE11__vallocateB8ue170006Em, symObjAddr: 0x313C, symBinAddr: 0x10001C4B8, symSize: 0xAC }
  - { offsetInCU: 0x14BC9, offset: 0x5C482, size: 0x8, addend: 0x0, symName: __ZNSt3__16vectorIP14InvestmentCardNS_9allocatorIS2_EEE18__construct_at_endIPS2_S7_EEvT_T0_m, symObjAddr: 0x31E8, symBinAddr: 0x10001C564, symSize: 0x8C }
  - { offsetInCU: 0x14C3D, offset: 0x5C4F6, size: 0x8, addend: 0x0, symName: __ZNSt3__128__exception_guard_exceptionsINS_6vectorIP14InvestmentCardNS_9allocatorIS3_EEE16__destroy_vectorEE10__completeB8ue170006Ev, symObjAddr: 0x3274, symBinAddr: 0x10001C5F0, symSize: 0x1C }
  - { offsetInCU: 0x14C62, offset: 0x5C51B, size: 0x8, addend: 0x0, symName: __ZNSt3__128__exception_guard_exceptionsINS_6vectorIP14InvestmentCardNS_9allocatorIS3_EEE16__destroy_vectorEED1B8ue170006Ev, symObjAddr: 0x3290, symBinAddr: 0x10001C60C, symSize: 0x2C }
  - { offsetInCU: 0x14C8B, offset: 0x5C544, size: 0x8, addend: 0x0, symName: __ZNSt3__128__exception_guard_exceptionsINS_6vectorIP14InvestmentCardNS_9allocatorIS3_EEE16__destroy_vectorEEC1B8ue170006ES7_, symObjAddr: 0x32BC, symBinAddr: 0x10001C638, symSize: 0x34 }
  - { offsetInCU: 0x14CC2, offset: 0x5C57B, size: 0x8, addend: 0x0, symName: __ZNSt3__128__exception_guard_exceptionsINS_6vectorIP14InvestmentCardNS_9allocatorIS3_EEE16__destroy_vectorEEC2B8ue170006ES7_, symObjAddr: 0x32F0, symBinAddr: 0x10001C66C, symSize: 0x24 }
  - { offsetInCU: 0x14CF9, offset: 0x5C5B2, size: 0x8, addend: 0x0, symName: __ZNSt3__16vectorIP14InvestmentCardNS_9allocatorIS2_EEE16__destroy_vectorC2B8ue170006ERS5_, symObjAddr: 0x3314, symBinAddr: 0x10001C690, symSize: 0x20 }
  - { offsetInCU: 0x14D31, offset: 0x5C5EA, size: 0x8, addend: 0x0, symName: __ZNKSt3__16vectorIP14InvestmentCardNS_9allocatorIS2_EEE8max_sizeEv, symObjAddr: 0x3334, symBinAddr: 0x10001C6B0, symSize: 0x60 }
  - { offsetInCU: 0x14D57, offset: 0x5C610, size: 0x8, addend: 0x0, symName: __ZNKSt3__16vectorIP14InvestmentCardNS_9allocatorIS2_EEE20__throw_length_errorB8ue170006Ev, symObjAddr: 0x3394, symBinAddr: 0x10001C710, symSize: 0x1C }
  - { offsetInCU: 0x14D7C, offset: 0x5C635, size: 0x8, addend: 0x0, symName: __ZNSt3__16vectorIP14InvestmentCardNS_9allocatorIS2_EEE7__allocB8ue170006Ev, symObjAddr: 0x33F0, symBinAddr: 0x10001C76C, symSize: 0x28 }
  - { offsetInCU: 0x14DA1, offset: 0x5C65A, size: 0x8, addend: 0x0, symName: __ZNSt3__16vectorIP14InvestmentCardNS_9allocatorIS2_EEE9__end_capB8ue170006Ev, symObjAddr: 0x3418, symBinAddr: 0x10001C794, symSize: 0x28 }
  - { offsetInCU: 0x14DC6, offset: 0x5C67F, size: 0x8, addend: 0x0, symName: __ZNKSt3__16vectorIP14InvestmentCardNS_9allocatorIS2_EEE14__annotate_newB8ue170006Em, symObjAddr: 0x3440, symBinAddr: 0x10001C7BC, symSize: 0xAC }
  - { offsetInCU: 0x14DFA, offset: 0x5C6B3, size: 0x8, addend: 0x0, symName: __ZNSt3__116allocator_traitsINS_9allocatorIP14InvestmentCardEEE8max_sizeB8ue170006IS4_vEEmRKS4_, symObjAddr: 0x34EC, symBinAddr: 0x10001C868, symSize: 0x24 }
  - { offsetInCU: 0x14E28, offset: 0x5C6E1, size: 0x8, addend: 0x0, symName: __ZNKSt3__19allocatorIP14InvestmentCardE8max_sizeB8ue170006Ev, symObjAddr: 0x3510, symBinAddr: 0x10001C88C, symSize: 0x14 }
  - { offsetInCU: 0x14E4D, offset: 0x5C706, size: 0x8, addend: 0x0, symName: __ZNSt3__19allocatorIP14InvestmentCardE8allocateB8ue170006Em, symObjAddr: 0x3524, symBinAddr: 0x10001C8A0, symSize: 0x58 }
  - { offsetInCU: 0x14E80, offset: 0x5C739, size: 0x8, addend: 0x0, symName: __ZNSt3__117__compressed_pairIPP14InvestmentCardNS_9allocatorIS2_EEE6secondB8ue170006Ev, symObjAddr: 0x357C, symBinAddr: 0x10001C8F8, symSize: 0x24 }
  - { offsetInCU: 0x14EA5, offset: 0x5C75E, size: 0x8, addend: 0x0, symName: __ZNSt3__122__compressed_pair_elemINS_9allocatorIP14InvestmentCardEELi1ELb1EE5__getB8ue170006Ev, symObjAddr: 0x35A0, symBinAddr: 0x10001C91C, symSize: 0x14 }
  - { offsetInCU: 0x14ECA, offset: 0x5C783, size: 0x8, addend: 0x0, symName: __ZNSt3__117__compressed_pairIPP14InvestmentCardNS_9allocatorIS2_EEE5firstB8ue170006Ev, symObjAddr: 0x35B4, symBinAddr: 0x10001C930, symSize: 0x24 }
  - { offsetInCU: 0x14EEF, offset: 0x5C7A8, size: 0x8, addend: 0x0, symName: __ZNSt3__122__compressed_pair_elemIPP14InvestmentCardLi0ELb0EE5__getB8ue170006Ev, symObjAddr: 0x35D8, symBinAddr: 0x10001C954, symSize: 0x14 }
  - { offsetInCU: 0x14F14, offset: 0x5C7CD, size: 0x8, addend: 0x0, symName: __ZNKSt3__16vectorIP14InvestmentCardNS_9allocatorIS2_EEE31__annotate_contiguous_containerB8ue170006EPKvS7_S7_S7_, symObjAddr: 0x35EC, symBinAddr: 0x10001C968, symSize: 0x20 }
  - { offsetInCU: 0x14F65, offset: 0x5C81E, size: 0x8, addend: 0x0, symName: __ZNKSt3__16vectorIP14InvestmentCardNS_9allocatorIS2_EEE4dataB8ue170006Ev, symObjAddr: 0x360C, symBinAddr: 0x10001C988, symSize: 0x28 }
  - { offsetInCU: 0x14F8A, offset: 0x5C843, size: 0x8, addend: 0x0, symName: __ZNKSt3__16vectorIP14InvestmentCardNS_9allocatorIS2_EEE8capacityB8ue170006Ev, symObjAddr: 0x3634, symBinAddr: 0x10001C9B0, symSize: 0x40 }
  - { offsetInCU: 0x14FAF, offset: 0x5C868, size: 0x8, addend: 0x0, symName: __ZNKSt3__16vectorIP14InvestmentCardNS_9allocatorIS2_EEE9__end_capB8ue170006Ev, symObjAddr: 0x3688, symBinAddr: 0x10001CA04, symSize: 0x28 }
  - { offsetInCU: 0x14FD4, offset: 0x5C88D, size: 0x8, addend: 0x0, symName: __ZNKSt3__117__compressed_pairIPP14InvestmentCardNS_9allocatorIS2_EEE5firstB8ue170006Ev, symObjAddr: 0x36B0, symBinAddr: 0x10001CA2C, symSize: 0x24 }
  - { offsetInCU: 0x14FF9, offset: 0x5C8B2, size: 0x8, addend: 0x0, symName: __ZNKSt3__122__compressed_pair_elemIPP14InvestmentCardLi0ELb0EE5__getB8ue170006Ev, symObjAddr: 0x36D4, symBinAddr: 0x10001CA50, symSize: 0x14 }
  - { offsetInCU: 0x15037, offset: 0x5C8F0, size: 0x8, addend: 0x0, symName: __ZNSt3__16vectorIP14InvestmentCardNS_9allocatorIS2_EEE21_ConstructTransactionC1B8ue170006ERS5_m, symObjAddr: 0x36E8, symBinAddr: 0x10001CA64, symSize: 0x3C }
  - { offsetInCU: 0x1507E, offset: 0x5C937, size: 0x8, addend: 0x0, symName: __ZNSt3__16vectorIP14InvestmentCardNS_9allocatorIS2_EEE21_ConstructTransactionD1B8ue170006Ev, symObjAddr: 0x37A4, symBinAddr: 0x10001CB20, symSize: 0x2C }
  - { offsetInCU: 0x150A7, offset: 0x5C960, size: 0x8, addend: 0x0, symName: __ZNSt3__16vectorIP14InvestmentCardNS_9allocatorIS2_EEE21_ConstructTransactionC2B8ue170006ERS5_m, symObjAddr: 0x37D0, symBinAddr: 0x10001CB4C, symSize: 0x44 }
  - { offsetInCU: 0x1510C, offset: 0x5C9C5, size: 0x8, addend: 0x0, symName: __ZNSt3__14pairIPP14InvestmentCardS3_EC1B8ue170006IS3_S3_LPv0EEEOT_OT0_, symObjAddr: 0x3944, symBinAddr: 0x10001CCC0, symSize: 0x3C }
  - { offsetInCU: 0x15169, offset: 0x5CA22, size: 0x8, addend: 0x0, symName: __ZNSt3__14pairIPP14InvestmentCardS3_EC2B8ue170006IS3_S3_LPv0EEEOT_OT0_, symObjAddr: 0x3980, symBinAddr: 0x10001CCFC, symSize: 0x34 }
  - { offsetInCU: 0x151C6, offset: 0x5CA7F, size: 0x8, addend: 0x0, symName: __ZNKSt3__114__copy_trivialclB8ue170006IP14InvestmentCardS3_Li0EEENS_4pairIPT_PT0_EES6_S6_S8_, symObjAddr: 0x3B30, symBinAddr: 0x10001CEAC, symSize: 0x48 }
  - { offsetInCU: 0x1522D, offset: 0x5CAE6, size: 0x8, addend: 0x0, symName: __ZNSt3__14pairIPP14InvestmentCardS3_EC1B8ue170006IRS3_S3_LPv0EEEOT_OT0_, symObjAddr: 0x3CC0, symBinAddr: 0x10001D03C, symSize: 0x3C }
  - { offsetInCU: 0x1528A, offset: 0x5CB43, size: 0x8, addend: 0x0, symName: __ZNSt3__14pairIPP14InvestmentCardS3_EC2B8ue170006IRS3_S3_LPv0EEEOT_OT0_, symObjAddr: 0x3CFC, symBinAddr: 0x10001D078, symSize: 0x34 }
  - { offsetInCU: 0x152E7, offset: 0x5CBA0, size: 0x8, addend: 0x0, symName: __ZNSt3__118__unwrap_iter_implIPP14InvestmentCardLb1EE8__unwrapB8ue170006ES3_, symObjAddr: 0x3D30, symBinAddr: 0x10001D0AC, symSize: 0x24 }
  - { offsetInCU: 0x1530A, offset: 0x5CBC3, size: 0x8, addend: 0x0, symName: __ZNSt3__118__unwrap_iter_implIPP14InvestmentCardLb1EE8__rewrapB8ue170006ES3_S3_, symObjAddr: 0x3D54, symBinAddr: 0x10001D0D0, symSize: 0x50 }
  - { offsetInCU: 0x1533B, offset: 0x5CBF4, size: 0x8, addend: 0x0, symName: __ZNSt3__16vectorIP14InvestmentCardNS_9allocatorIS2_EEE21_ConstructTransactionD2B8ue170006Ev, symObjAddr: 0x3DA4, symBinAddr: 0x10001D120, symSize: 0x20 }
  - { offsetInCU: 0x15364, offset: 0x5CC1D, size: 0x8, addend: 0x0, symName: __ZNSt3__128__exception_guard_exceptionsINS_6vectorIP14InvestmentCardNS_9allocatorIS3_EEE16__destroy_vectorEED2B8ue170006Ev, symObjAddr: 0x3DC4, symBinAddr: 0x10001D140, symSize: 0x50 }
  - { offsetInCU: 0x1538D, offset: 0x5CC46, size: 0x8, addend: 0x0, symName: __ZNSt3__16vectorIP14InvestmentCardNS_9allocatorIS2_EEE16__destroy_vectorclB8ue170006Ev, symObjAddr: 0x3E14, symBinAddr: 0x10001D190, symSize: 0x90 }
  - { offsetInCU: 0x153B2, offset: 0x5CC6B, size: 0x8, addend: 0x0, symName: __ZNSt3__16vectorIP14InvestmentCardNS_9allocatorIS2_EEE7__clearB8ue170006Ev, symObjAddr: 0x3EA4, symBinAddr: 0x10001D220, symSize: 0x28 }
  - { offsetInCU: 0x153D7, offset: 0x5CC90, size: 0x8, addend: 0x0, symName: __ZNKSt3__16vectorIP14InvestmentCardNS_9allocatorIS2_EEE17__annotate_deleteB8ue170006Ev, symObjAddr: 0x3ECC, symBinAddr: 0x10001D248, symSize: 0xB8 }
  - { offsetInCU: 0x153FC, offset: 0x5CCB5, size: 0x8, addend: 0x0, symName: __ZNSt3__116allocator_traitsINS_9allocatorIP14InvestmentCardEEE10deallocateB8ue170006ERS4_PS3_m, symObjAddr: 0x3F84, symBinAddr: 0x10001D300, symSize: 0x34 }
  - { offsetInCU: 0x1543E, offset: 0x5CCF7, size: 0x8, addend: 0x0, symName: __ZNSt3__16vectorIP14InvestmentCardNS_9allocatorIS2_EEE22__base_destruct_at_endB8ue170006EPS2_, symObjAddr: 0x3FB8, symBinAddr: 0x10001D334, symSize: 0x8C }
  - { offsetInCU: 0x15481, offset: 0x5CD3A, size: 0x8, addend: 0x0, symName: __ZNSt3__116allocator_traitsINS_9allocatorIP14InvestmentCardEEE7destroyB8ue170006IS3_vEEvRS4_PT_, symObjAddr: 0x4044, symBinAddr: 0x10001D3C0, symSize: 0x2C }
  - { offsetInCU: 0x154BE, offset: 0x5CD77, size: 0x8, addend: 0x0, symName: __ZNSt3__19allocatorIP14InvestmentCardE7destroyB8ue170006EPS2_, symObjAddr: 0x4070, symBinAddr: 0x10001D3EC, symSize: 0x14 }
  - { offsetInCU: 0x154F1, offset: 0x5CDAA, size: 0x8, addend: 0x0, symName: __ZNSt3__19allocatorIP14InvestmentCardE10deallocateB8ue170006EPS2_m, symObjAddr: 0x4084, symBinAddr: 0x10001D400, symSize: 0x40 }
  - { offsetInCU: 0x15532, offset: 0x5CDEB, size: 0x8, addend: 0x0, symName: __ZNSt3__16vectorIP10ActionCardNS_9allocatorIS2_EEED2B8ue170006Ev, symObjAddr: 0x40C4, symBinAddr: 0x10001D440, symSize: 0x40 }
  - { offsetInCU: 0x1555B, offset: 0x5CE14, size: 0x8, addend: 0x0, symName: __ZNSt3__16vectorIP4UnitNS_9allocatorIS2_EEED2B8ue170006Ev, symObjAddr: 0x4104, symBinAddr: 0x10001D480, symSize: 0x40 }
  - { offsetInCU: 0x15584, offset: 0x5CE3D, size: 0x8, addend: 0x0, symName: __ZN6PlayerD2Ev, symObjAddr: 0x4144, symBinAddr: 0x10001D4C0, symSize: 0x50 }
  - { offsetInCU: 0x155AF, offset: 0x5CE68, size: 0x8, addend: 0x0, symName: __ZNSt3__16vectorIP14InvestmentCardNS_9allocatorIS2_EEED1B8ue170006Ev, symObjAddr: 0x4194, symBinAddr: 0x10001D510, symSize: 0x2C }
  - { offsetInCU: 0x155D8, offset: 0x5CE91, size: 0x8, addend: 0x0, symName: __ZNSt3__16vectorIP14InvestmentCardNS_9allocatorIS2_EEED2B8ue170006Ev, symObjAddr: 0x41C0, symBinAddr: 0x10001D53C, symSize: 0x40 }
  - { offsetInCU: 0x26, offset: 0x5CF70, size: 0x8, addend: 0x0, symName: __ZNK4Unit5printEv, symObjAddr: 0x0, symBinAddr: 0x10001D57C, symSize: 0x6C }
  - { offsetInCU: 0x637F, offset: 0x632C9, size: 0x8, addend: 0x0, symName: __ZNK4Unit5printEv, symObjAddr: 0x0, symBinAddr: 0x10001D57C, symSize: 0x6C }
  - { offsetInCU: 0x100AD, offset: 0x733A2, size: 0x8, addend: 0x0, symName: __ZNSt3__112__to_addressB8ue170006IiEEPT_S2_, symObjAddr: 0x4360, symBinAddr: 0x100020D20, symSize: 0x14 }
  - { offsetInCU: 0x100E2, offset: 0x733D7, size: 0x8, addend: 0x0, symName: __ZNSt3__119__allocate_at_leastB8ue170006INS_9allocatorIiEEEENS_19__allocation_resultINS_16allocator_traitsIT_E7pointerEEERS5_m, symObjAddr: 0x4950, symBinAddr: 0x1000210DC, symSize: 0x40 }
  - { offsetInCU: 0x10125, offset: 0x7341A, size: 0x8, addend: 0x0, symName: __ZNSt3__142__uninitialized_allocator_move_if_noexceptB8ue170006INS_9allocatorIiEENS_16reverse_iteratorIPiEES5_ivEET1_RT_T0_S9_S6_, symObjAddr: 0x4D08, symBinAddr: 0x100021414, symSize: 0x78 }
  - { offsetInCU: 0x101A2, offset: 0x73497, size: 0x8, addend: 0x0, symName: __ZNSt3__14swapB8ue170006IPiEENS_9enable_ifIXaasr21is_move_constructibleIT_EE5valuesr18is_move_assignableIS3_EE5valueEvE4typeERS3_S6_, symObjAddr: 0x4DCC, symBinAddr: 0x1000214D8, symSize: 0x3C }
  - { offsetInCU: 0x101F3, offset: 0x734E8, size: 0x8, addend: 0x0, symName: __ZNSt3__14moveB8ue170006INS_16reverse_iteratorIPiEES3_EET0_T_S5_S4_, symObjAddr: 0x4EFC, symBinAddr: 0x100021608, symSize: 0x78 }
  - { offsetInCU: 0x1024D, offset: 0x73542, size: 0x8, addend: 0x0, symName: __ZNSt3__16__moveB8ue170006INS_17_ClassicAlgPolicyENS_16reverse_iteratorIPiEES4_S4_EENS_4pairIT0_T2_EES6_T1_S7_, symObjAddr: 0x4F74, symBinAddr: 0x100021680, symSize: 0x64 }
  - { offsetInCU: 0x102B9, offset: 0x735AE, size: 0x8, addend: 0x0, symName: __ZNSt3__123__dispatch_copy_or_moveB8ue170006INS_17_ClassicAlgPolicyENS_11__move_loopIS1_EENS_14__move_trivialENS_16reverse_iteratorIPiEES7_S7_EENS_4pairIT2_T4_EES9_T3_SA_, symObjAddr: 0x4FD8, symBinAddr: 0x1000216E4, symSize: 0x64 }
  - { offsetInCU: 0x10337, offset: 0x7362C, size: 0x8, addend: 0x0, symName: __ZNSt3__121__unwrap_and_dispatchB8ue170006INS_10__overloadINS_11__move_loopINS_17_ClassicAlgPolicyEEENS_14__move_trivialEEENS_16reverse_iteratorIPiEES9_S9_Li0EEENS_4pairIT0_T2_EESB_T1_SC_, symObjAddr: 0x503C, symBinAddr: 0x100021748, symSize: 0x12C }
  - { offsetInCU: 0x103C7, offset: 0x736BC, size: 0x8, addend: 0x0, symName: __ZNSt3__114__unwrap_rangeB8ue170006INS_16reverse_iteratorIPiEES3_EENS_4pairIT0_S5_EET_S7_, symObjAddr: 0x5168, symBinAddr: 0x100021874, symSize: 0x84 }
  - { offsetInCU: 0x10539, offset: 0x7382E, size: 0x8, addend: 0x0, symName: __ZNSt3__113__unwrap_iterB8ue170006INS_16reverse_iteratorIPiEENS_18__unwrap_iter_implIS3_Lb0EEELi0EEEDTclsrT0_8__unwrapclsr3stdE7declvalIT_EEEES7_, symObjAddr: 0x528C, symBinAddr: 0x100021998, symSize: 0x44 }
  - { offsetInCU: 0x1057D, offset: 0x73872, size: 0x8, addend: 0x0, symName: __ZNSt3__19make_pairB8ue170006INS_16reverse_iteratorIPiEES3_EENS_4pairINS_18__unwrap_ref_decayIT_E4typeENS5_IT0_E4typeEEEOS6_OS9_, symObjAddr: 0x52D0, symBinAddr: 0x1000219DC, symSize: 0x38 }
  - { offsetInCU: 0x105CC, offset: 0x738C1, size: 0x8, addend: 0x0, symName: __ZNSt3__114__rewrap_rangeB8ue170006INS_16reverse_iteratorIPiEES3_EET_S4_T0_, symObjAddr: 0x5308, symBinAddr: 0x100021A14, symSize: 0x5C }
  - { offsetInCU: 0x10618, offset: 0x7390D, size: 0x8, addend: 0x0, symName: __ZNSt3__113__rewrap_iterB8ue170006INS_16reverse_iteratorIPiEES3_NS_18__unwrap_iter_implIS3_Lb0EEEEET_S6_T0_, symObjAddr: 0x5364, symBinAddr: 0x100021A70, symSize: 0x74 }
  - { offsetInCU: 0x1066D, offset: 0x73962, size: 0x8, addend: 0x0, symName: __ZNSt3__1neB8ue170006IPiS1_EEbRKNS_16reverse_iteratorIT_EERKNS2_IT0_EE, symObjAddr: 0x53D8, symBinAddr: 0x100021AE4, symSize: 0x48 }
  - { offsetInCU: 0x1076B, offset: 0x73A60, size: 0x8, addend: 0x0, symName: __ZNSt3__118__constexpr_strlenB8ue170006EPKc, symObjAddr: 0x5D68, symBinAddr: 0x100022474, symSize: 0x24 }
  - { offsetInCU: 0x10797, offset: 0x73A8C, size: 0x8, addend: 0x0, symName: __ZNSt3__1neB8ue170006ERKNS_16__deque_iteratorIP14InvestmentCardPS2_RS2_PS3_lLl512EEES8_, symObjAddr: 0x799C, symBinAddr: 0x1000232BC, symSize: 0x34 }
  - { offsetInCU: 0x107D4, offset: 0x73AC9, size: 0x8, addend: 0x0, symName: __ZNSt3__1eqB8ue170006ERKNS_16__deque_iteratorIP14InvestmentCardPS2_RS2_PS3_lLl512EEES8_, symObjAddr: 0x7B54, symBinAddr: 0x100023474, symSize: 0x30 }
  - { offsetInCU: 0x10811, offset: 0x73B06, size: 0x8, addend: 0x0, symName: __ZNSt3__112__to_addressB8ue170006IPP14InvestmentCardEEPT_S5_, symObjAddr: 0x7F44, symBinAddr: 0x100023850, symSize: 0x14 }
  - { offsetInCU: 0x10846, offset: 0x73B3B, size: 0x8, addend: 0x0, symName: __ZNSt3__1neB8ue170006ERKNS_16__deque_iteratorIP10ActionCardPS2_RS2_PS3_lLl512EEES8_, symObjAddr: 0x86C8, symBinAddr: 0x100023EAC, symSize: 0x34 }
  - { offsetInCU: 0x10883, offset: 0x73B78, size: 0x8, addend: 0x0, symName: __ZNSt3__1eqB8ue170006ERKNS_16__deque_iteratorIP10ActionCardPS2_RS2_PS3_lLl512EEES8_, symObjAddr: 0x8880, symBinAddr: 0x100024064, symSize: 0x30 }
  - { offsetInCU: 0x108C0, offset: 0x73BB5, size: 0x8, addend: 0x0, symName: __ZNSt3__112__to_addressB8ue170006IPP10ActionCardEEPT_S5_, symObjAddr: 0x8C5C, symBinAddr: 0x100024440, symSize: 0x14 }
  - { offsetInCU: 0x108F5, offset: 0x73BEA, size: 0x8, addend: 0x0, symName: __ZNSt3__1neB8ue170006IcNS_11char_traitsIcEENS_9allocatorIcEEEEbRKNS_12basic_stringIT_T0_T1_EEPKS6_, symObjAddr: 0xC32C, symBinAddr: 0x100024B98, symSize: 0x34 }
  - { offsetInCU: 0x1094D, offset: 0x73C42, size: 0x8, addend: 0x0, symName: __ZNSt3__1eqB8ue170006IcNS_11char_traitsIcEENS_9allocatorIcEEEEbRKNS_12basic_stringIT_T0_T1_EEPKS6_, symObjAddr: 0xC460, symBinAddr: 0x100024BCC, symSize: 0xAC }
  - { offsetInCU: 0x11204, offset: 0x744F9, size: 0x8, addend: 0x0, symName: __ZNSt3__16vectorIiNS_9allocatorIiEEE26__swap_out_circular_bufferERNS_14__split_bufferIiRS2_EE, symObjAddr: 0x4184, symBinAddr: 0x100020B44, symSize: 0x110 }
  - { offsetInCU: 0x139C6, offset: 0x76CBB, size: 0x8, addend: 0x0, symName: _main, symObjAddr: 0x0, symBinAddr: 0x10001D5E8, symSize: 0x90 }
  - { offsetInCU: 0x143D3, offset: 0x776C8, size: 0x8, addend: 0x0, symName: __ZN6RunnerC1Eb, symObjAddr: 0x90, symBinAddr: 0x10001D678, symSize: 0x40 }
  - { offsetInCU: 0x1440A, offset: 0x776FF, size: 0x8, addend: 0x0, symName: __ZN6Runner4testEv, symObjAddr: 0xD0, symBinAddr: 0x10001D6B8, symSize: 0x630 }
  - { offsetInCU: 0x144B3, offset: 0x777A8, size: 0x8, addend: 0x0, symName: __ZN6Runner10freeMemoryEv, symObjAddr: 0x700, symBinAddr: 0x10001DCE8, symSize: 0x28 }
  - { offsetInCU: 0x144D8, offset: 0x777CD, size: 0x8, addend: 0x0, symName: __ZN6RunnerD1Ev, symObjAddr: 0x728, symBinAddr: 0x10001DD10, symSize: 0x2C }
  - { offsetInCU: 0x14503, offset: 0x777F8, size: 0x8, addend: 0x0, symName: __ZN6RunnerC2Eb, symObjAddr: 0x754, symBinAddr: 0x10001DD3C, symSize: 0x424 }
  - { offsetInCU: 0x1453A, offset: 0x7782F, size: 0x8, addend: 0x0, symName: __ZN6PlayerC1Ev, symObjAddr: 0xB78, symBinAddr: 0x10001E160, symSize: 0x2C }
  - { offsetInCU: 0x14563, offset: 0x77858, size: 0x8, addend: 0x0, symName: __ZN3MapC1Ev, symObjAddr: 0xBD0, symBinAddr: 0x10001E18C, symSize: 0x2C }
  - { offsetInCU: 0x1458E, offset: 0x77883, size: 0x8, addend: 0x0, symName: __ZN4DiceC1Ev, symObjAddr: 0xBFC, symBinAddr: 0x10001E1B8, symSize: 0x2C }
  - { offsetInCU: 0x145B7, offset: 0x778AC, size: 0x8, addend: 0x0, symName: __ZNSt3__15queueIP10ActionCardNS_5dequeIS2_NS_9allocatorIS2_EEEEEC1B8ue170006Ev, symObjAddr: 0xC28, symBinAddr: 0x10001E1E4, symSize: 0x2C }
  - { offsetInCU: 0x145E0, offset: 0x778D5, size: 0x8, addend: 0x0, symName: __ZNSt3__16vectorIP10ActionCardNS_9allocatorIS2_EEEC1B8ue170006Ev, symObjAddr: 0xC54, symBinAddr: 0x10001E210, symSize: 0x2C }
  - { offsetInCU: 0x14609, offset: 0x778FE, size: 0x8, addend: 0x0, symName: __ZNSt3__15queueIP14InvestmentCardNS_5dequeIS2_NS_9allocatorIS2_EEEEEC1B8ue170006Ev, symObjAddr: 0xC80, symBinAddr: 0x10001E23C, symSize: 0x2C }
  - { offsetInCU: 0x14632, offset: 0x77927, size: 0x8, addend: 0x0, symName: __ZNSt3__16vectorIP14InvestmentCardNS_9allocatorIS2_EEEC1B8ue170006Ev, symObjAddr: 0xCAC, symBinAddr: 0x10001E268, symSize: 0x2C }
  - { offsetInCU: 0x1465B, offset: 0x77950, size: 0x8, addend: 0x0, symName: __ZN4DiceC1Eii, symObjAddr: 0xCD8, symBinAddr: 0x10001E294, symSize: 0x3C }
  - { offsetInCU: 0x146AA, offset: 0x7799F, size: 0x8, addend: 0x0, symName: __ZN4DiceaSEOS_, symObjAddr: 0xD14, symBinAddr: 0x10001E2D0, symSize: 0x40 }
  - { offsetInCU: 0x146DA, offset: 0x779CF, size: 0x8, addend: 0x0, symName: __ZN4DiceD1Ev, symObjAddr: 0xD54, symBinAddr: 0x10001E310, symSize: 0x2C }
  - { offsetInCU: 0x1470A, offset: 0x779FF, size: 0x8, addend: 0x0, symName: __ZNSt3__112basic_stringIcNS_11char_traitsIcEENS_9allocatorIcEEEC1B8ue170006ILi0EEEPKc, symObjAddr: 0xD80, symBinAddr: 0x10001E33C, symSize: 0x34 }
  - { offsetInCU: 0x14748, offset: 0x77A3D, size: 0x8, addend: 0x0, symName: __ZN6PlayerC1ENSt3__112basic_stringIcNS0_11char_traitsIcEENS0_9allocatorIcEEEE8CityType, symObjAddr: 0xDB4, symBinAddr: 0x10001E370, symSize: 0x3C }
  - { offsetInCU: 0x14793, offset: 0x77A88, size: 0x8, addend: 0x0, symName: __ZN6PlayeraSEOS_, symObjAddr: 0xDF0, symBinAddr: 0x10001E3AC, symSize: 0xB4 }
  - { offsetInCU: 0x147C3, offset: 0x77AB8, size: 0x8, addend: 0x0, symName: __ZNSt3__15queueIP14InvestmentCardNS_5dequeIS2_NS_9allocatorIS2_EEEEED1Ev, symObjAddr: 0xED0, symBinAddr: 0x10001E460, symSize: 0x2C }
  - { offsetInCU: 0x147EF, offset: 0x77AE4, size: 0x8, addend: 0x0, symName: __ZNSt3__15queueIP10ActionCardNS_5dequeIS2_NS_9allocatorIS2_EEEEED1Ev, symObjAddr: 0xF28, symBinAddr: 0x10001E48C, symSize: 0x2C }
  - { offsetInCU: 0x1481B, offset: 0x77B10, size: 0x8, addend: 0x0, symName: __ZN3MapD1Ev, symObjAddr: 0xF54, symBinAddr: 0x10001E4B8, symSize: 0x2C }
  - { offsetInCU: 0x14846, offset: 0x77B3B, size: 0x8, addend: 0x0, symName: __ZN6PlayerC2Ev, symObjAddr: 0xF80, symBinAddr: 0x10001E4E4, symSize: 0xAC }
  - { offsetInCU: 0x1486F, offset: 0x77B64, size: 0x8, addend: 0x0, symName: __ZNSt3__112basic_stringIcNS_11char_traitsIcEENS_9allocatorIcEEEaSB8ue170006EPKc, symObjAddr: 0x1084, symBinAddr: 0x10001E590, symSize: 0x2C }
  - { offsetInCU: 0x148AD, offset: 0x77BA2, size: 0x8, addend: 0x0, symName: __ZN3MapC2Ev, symObjAddr: 0x1988, symBinAddr: 0x10001E5BC, symSize: 0x44 }
  - { offsetInCU: 0x148D8, offset: 0x77BCD, size: 0x8, addend: 0x0, symName: __ZNSt3__113unordered_mapINS_12basic_stringIcNS_11char_traitsIcEENS_9allocatorIcEEEEP4CityNS_4hashIS6_EENS_8equal_toIS6_EENS4_INS_4pairIKS6_S8_EEEEEC1B8ue170006Ev, symObjAddr: 0x19CC, symBinAddr: 0x10001E600, symSize: 0x2C }
  - { offsetInCU: 0x14901, offset: 0x77BF6, size: 0x8, addend: 0x0, symName: __ZNSt3__16vectorINS0_I10BorderTypeNS_9allocatorIS1_EEEENS2_IS4_EEEC1B8ue170006Ev, symObjAddr: 0x1A24, symBinAddr: 0x10001E62C, symSize: 0x2C }
  - { offsetInCU: 0x1492A, offset: 0x77C1F, size: 0x8, addend: 0x0, symName: __ZNSt3__113unordered_mapINS_12basic_stringIcNS_11char_traitsIcEENS_9allocatorIcEEEEP4CityNS_4hashIS6_EENS_8equal_toIS6_EENS4_INS_4pairIKS6_S8_EEEEEC2B8ue170006Ev, symObjAddr: 0x1A50, symBinAddr: 0x10001E658, symSize: 0x2C }
  - { offsetInCU: 0x14953, offset: 0x77C48, size: 0x8, addend: 0x0, symName: __ZNSt3__112__hash_tableINS_17__hash_value_typeINS_12basic_stringIcNS_11char_traitsIcEENS_9allocatorIcEEEEP4CityEENS_22__unordered_map_hasherIS7_SA_NS_4hashIS7_EENS_8equal_toIS7_EELb1EEENS_21__unordered_map_equalIS7_SA_SF_SD_Lb1EEENS5_ISA_EEEC1Ev, symObjAddr: 0x1A7C, symBinAddr: 0x10001E684, symSize: 0x2C }
  - { offsetInCU: 0x1497E, offset: 0x77C73, size: 0x8, addend: 0x0, symName: __ZNSt3__112__hash_tableINS_17__hash_value_typeINS_12basic_stringIcNS_11char_traitsIcEENS_9allocatorIcEEEEP4CityEENS_22__unordered_map_hasherIS7_SA_NS_4hashIS7_EENS_8equal_toIS7_EELb1EEENS_21__unordered_map_equalIS7_SA_SF_SD_Lb1EEENS5_ISA_EEEC2Ev, symObjAddr: 0x1AA8, symBinAddr: 0x10001E6B0, symSize: 0x7C }
  - { offsetInCU: 0x149A9, offset: 0x77C9E, size: 0x8, addend: 0x0, symName: __ZNSt3__110unique_ptrIA_PNS_16__hash_node_baseIPNS_11__hash_nodeINS_17__hash_value_typeINS_12basic_stringIcNS_11char_traitsIcEENS_9allocatorIcEEEEP4CityEEPvEEEENS_25__bucket_list_deallocatorINS7_ISH_EEEEEC1B8ue170006ILb1EvEEv, symObjAddr: 0x1B24, symBinAddr: 0x10001E72C, symSize: 0x2C }
  - { offsetInCU: 0x149DD, offset: 0x77CD2, size: 0x8, addend: 0x0, symName: __ZNSt3__117__compressed_pairINS_16__hash_node_baseIPNS_11__hash_nodeINS_17__hash_value_typeINS_12basic_stringIcNS_11char_traitsIcEENS_9allocatorIcEEEEP4CityEEPvEEEENS7_ISE_EEEC1B8ue170006ILb1EvEEv, symObjAddr: 0x1B50, symBinAddr: 0x10001E758, symSize: 0x2C }
  - { offsetInCU: 0x14A16, offset: 0x77D0B, size: 0x8, addend: 0x0, symName: __ZNSt3__117__compressed_pairImNS_22__unordered_map_hasherINS_12basic_stringIcNS_11char_traitsIcEENS_9allocatorIcEEEENS_17__hash_value_typeIS7_P4CityEENS_4hashIS7_EENS_8equal_toIS7_EELb1EEEEC1B8ue170006IiNS_18__default_init_tagEEEOT_OT0_, symObjAddr: 0x1B7C, symBinAddr: 0x10001E784, symSize: 0x3C }
  - { offsetInCU: 0x14A72, offset: 0x77D67, size: 0x8, addend: 0x0, symName: __ZNSt3__117__compressed_pairIfNS_21__unordered_map_equalINS_12basic_stringIcNS_11char_traitsIcEENS_9allocatorIcEEEENS_17__hash_value_typeIS7_P4CityEENS_8equal_toIS7_EENS_4hashIS7_EELb1EEEEC1B8ue170006IfNS_18__default_init_tagEEEOT_OT0_, symObjAddr: 0x1BB8, symBinAddr: 0x10001E7C0, symSize: 0x3C }
  - { offsetInCU: 0x14AC9, offset: 0x77DBE, size: 0x8, addend: 0x0, symName: __ZNSt3__110unique_ptrIA_PNS_16__hash_node_baseIPNS_11__hash_nodeINS_17__hash_value_typeINS_12basic_stringIcNS_11char_traitsIcEENS_9allocatorIcEEEEP4CityEEPvEEEENS_25__bucket_list_deallocatorINS7_ISH_EEEEEC2B8ue170006ILb1EvEEv, symObjAddr: 0x1BF4, symBinAddr: 0x10001E7FC, symSize: 0x3C }
  - { offsetInCU: 0x14B02, offset: 0x77DF7, size: 0x8, addend: 0x0, symName: __ZNSt3__117__compressed_pairIPPNS_16__hash_node_baseIPNS_11__hash_nodeINS_17__hash_value_typeINS_12basic_stringIcNS_11char_traitsIcEENS_9allocatorIcEEEEP4CityEEPvEEEENS_25__bucket_list_deallocatorINS7_ISH_EEEEEC1B8ue170006INS_16__value_init_tagESO_EEOT_OT0_, symObjAddr: 0x1C30, symBinAddr: 0x10001E838, symSize: 0x3C }
  - { offsetInCU: 0x14B59, offset: 0x77E4E, size: 0x8, addend: 0x0, symName: __ZNSt3__117__compressed_pairIPPNS_16__hash_node_baseIPNS_11__hash_nodeINS_17__hash_value_typeINS_12basic_stringIcNS_11char_traitsIcEENS_9allocatorIcEEEEP4CityEEPvEEEENS_25__bucket_list_deallocatorINS7_ISH_EEEEEC2B8ue170006INS_16__value_init_tagESO_EEOT_OT0_, symObjAddr: 0x1C6C, symBinAddr: 0x10001E874, symSize: 0x40 }
  - { offsetInCU: 0x14BB0, offset: 0x77EA5, size: 0x8, addend: 0x0, symName: __ZNSt3__122__compressed_pair_elemIPPNS_16__hash_node_baseIPNS_11__hash_nodeINS_17__hash_value_typeINS_12basic_stringIcNS_11char_traitsIcEENS_9allocatorIcEEEEP4CityEEPvEEEELi0ELb0EEC2B8ue170006ENS_16__value_init_tagE, symObjAddr: 0x1CAC, symBinAddr: 0x10001E8B4, symSize: 0x18 }
  - { offsetInCU: 0x14BE4, offset: 0x77ED9, size: 0x8, addend: 0x0, symName: __ZNSt3__122__compressed_pair_elemINS_25__bucket_list_deallocatorINS_9allocatorIPNS_16__hash_node_baseIPNS_11__hash_nodeINS_17__hash_value_typeINS_12basic_stringIcNS_11char_traitsIcEENS2_IcEEEEP4CityEEPvEEEEEEEELi1ELb0EEC2B8ue170006ENS_16__value_init_tagE, symObjAddr: 0x1CC4, symBinAddr: 0x10001E8CC, symSize: 0x2C }
  - { offsetInCU: 0x14C18, offset: 0x77F0D, size: 0x8, addend: 0x0, symName: __ZNSt3__125__bucket_list_deallocatorINS_9allocatorIPNS_16__hash_node_baseIPNS_11__hash_nodeINS_17__hash_value_typeINS_12basic_stringIcNS_11char_traitsIcEENS1_IcEEEEP4CityEEPvEEEEEEEC1B8ue170006Ev, symObjAddr: 0x1CF0, symBinAddr: 0x10001E8F8, symSize: 0x2C }
  - { offsetInCU: 0x14C41, offset: 0x77F36, size: 0x8, addend: 0x0, symName: __ZNSt3__125__bucket_list_deallocatorINS_9allocatorIPNS_16__hash_node_baseIPNS_11__hash_nodeINS_17__hash_value_typeINS_12basic_stringIcNS_11char_traitsIcEENS1_IcEEEEP4CityEEPvEEEEEEEC2B8ue170006Ev, symObjAddr: 0x1D1C, symBinAddr: 0x10001E924, symSize: 0x40 }
  - { offsetInCU: 0x14C6A, offset: 0x77F5F, size: 0x8, addend: 0x0, symName: __ZNSt3__117__compressed_pairImNS_9allocatorIPNS_16__hash_node_baseIPNS_11__hash_nodeINS_17__hash_value_typeINS_12basic_stringIcNS_11char_traitsIcEENS1_IcEEEEP4CityEEPvEEEEEEEC1B8ue170006IiNS_18__default_init_tagEEEOT_OT0_, symObjAddr: 0x1D5C, symBinAddr: 0x10001E964, symSize: 0x3C }
  - { offsetInCU: 0x14CC1, offset: 0x77FB6, size: 0x8, addend: 0x0, symName: __ZNSt3__117__compressed_pairImNS_9allocatorIPNS_16__hash_node_baseIPNS_11__hash_nodeINS_17__hash_value_typeINS_12basic_stringIcNS_11char_traitsIcEENS1_IcEEEEP4CityEEPvEEEEEEEC2B8ue170006IiNS_18__default_init_tagEEEOT_OT0_, symObjAddr: 0x1D98, symBinAddr: 0x10001E9A0, symSize: 0x40 }
  - { offsetInCU: 0x14D18, offset: 0x7800D, size: 0x8, addend: 0x0, symName: __ZNSt3__122__compressed_pair_elemINS_9allocatorIPNS_16__hash_node_baseIPNS_11__hash_nodeINS_17__hash_value_typeINS_12basic_stringIcNS_11char_traitsIcEENS1_IcEEEEP4CityEEPvEEEEEELi1ELb1EEC2B8ue170006ENS_18__default_init_tagE, symObjAddr: 0x1DFC, symBinAddr: 0x10001E9E0, symSize: 0x2C }
  - { offsetInCU: 0x14D4C, offset: 0x78041, size: 0x8, addend: 0x0, symName: __ZNSt3__19allocatorIPNS_16__hash_node_baseIPNS_11__hash_nodeINS_17__hash_value_typeINS_12basic_stringIcNS_11char_traitsIcEENS0_IcEEEEP4CityEEPvEEEEEC2B8ue170006Ev, symObjAddr: 0x1E28, symBinAddr: 0x10001EA0C, symSize: 0x2C }
  - { offsetInCU: 0x14D75, offset: 0x7806A, size: 0x8, addend: 0x0, symName: __ZNSt3__116__non_trivial_ifILb1ENS_9allocatorIPNS_16__hash_node_baseIPNS_11__hash_nodeINS_17__hash_value_typeINS_12basic_stringIcNS_11char_traitsIcEENS1_IcEEEEP4CityEEPvEEEEEEEC2B8ue170006Ev, symObjAddr: 0x1E54, symBinAddr: 0x10001EA38, symSize: 0x14 }
  - { offsetInCU: 0x14D9E, offset: 0x78093, size: 0x8, addend: 0x0, symName: __ZNSt3__117__compressed_pairINS_16__hash_node_baseIPNS_11__hash_nodeINS_17__hash_value_typeINS_12basic_stringIcNS_11char_traitsIcEENS_9allocatorIcEEEEP4CityEEPvEEEENS7_ISE_EEEC2B8ue170006ILb1EvEEv, symObjAddr: 0x1E68, symBinAddr: 0x10001EA4C, symSize: 0x34 }
  - { offsetInCU: 0x14DD2, offset: 0x780C7, size: 0x8, addend: 0x0, symName: __ZNSt3__122__compressed_pair_elemINS_16__hash_node_baseIPNS_11__hash_nodeINS_17__hash_value_typeINS_12basic_stringIcNS_11char_traitsIcEENS_9allocatorIcEEEEP4CityEEPvEEEELi0ELb0EEC2B8ue170006ENS_16__value_init_tagE, symObjAddr: 0x1E9C, symBinAddr: 0x10001EA80, symSize: 0x2C }
  - { offsetInCU: 0x14E06, offset: 0x780FB, size: 0x8, addend: 0x0, symName: __ZNSt3__122__compressed_pair_elemINS_9allocatorINS_11__hash_nodeINS_17__hash_value_typeINS_12basic_stringIcNS_11char_traitsIcEENS1_IcEEEEP4CityEEPvEEEELi1ELb1EEC2B8ue170006ENS_16__value_init_tagE, symObjAddr: 0x1EC8, symBinAddr: 0x10001EAAC, symSize: 0x2C }
  - { offsetInCU: 0x14E3A, offset: 0x7812F, size: 0x8, addend: 0x0, symName: __ZNSt3__19allocatorINS_11__hash_nodeINS_17__hash_value_typeINS_12basic_stringIcNS_11char_traitsIcEENS0_IcEEEEP4CityEEPvEEEC2B8ue170006Ev, symObjAddr: 0x1F38, symBinAddr: 0x10001EAD8, symSize: 0x2C }
  - { offsetInCU: 0x14E63, offset: 0x78158, size: 0x8, addend: 0x0, symName: __ZNSt3__116__non_trivial_ifILb1ENS_9allocatorINS_11__hash_nodeINS_17__hash_value_typeINS_12basic_stringIcNS_11char_traitsIcEENS1_IcEEEEP4CityEEPvEEEEEC2B8ue170006Ev, symObjAddr: 0x1F64, symBinAddr: 0x10001EB04, symSize: 0x14 }
  - { offsetInCU: 0x14E8C, offset: 0x78181, size: 0x8, addend: 0x0, symName: __ZNSt3__117__compressed_pairImNS_22__unordered_map_hasherINS_12basic_stringIcNS_11char_traitsIcEENS_9allocatorIcEEEENS_17__hash_value_typeIS7_P4CityEENS_4hashIS7_EENS_8equal_toIS7_EELb1EEEEC2B8ue170006IiNS_18__default_init_tagEEEOT_OT0_, symObjAddr: 0x1F78, symBinAddr: 0x10001EB18, symSize: 0x40 }
  - { offsetInCU: 0x14EE3, offset: 0x781D8, size: 0x8, addend: 0x0, symName: __ZNSt3__122__compressed_pair_elemINS_22__unordered_map_hasherINS_12basic_stringIcNS_11char_traitsIcEENS_9allocatorIcEEEENS_17__hash_value_typeIS7_P4CityEENS_4hashIS7_EENS_8equal_toIS7_EELb1EEELi1ELb1EEC2B8ue170006ENS_18__default_init_tagE, symObjAddr: 0x1FB8, symBinAddr: 0x10001EB58, symSize: 0x2C }
  - { offsetInCU: 0x14F17, offset: 0x7820C, size: 0x8, addend: 0x0, symName: __ZNSt3__122__unordered_map_hasherINS_12basic_stringIcNS_11char_traitsIcEENS_9allocatorIcEEEENS_17__hash_value_typeIS6_P4CityEENS_4hashIS6_EENS_8equal_toIS6_EELb1EEC2B8ue170006Ev, symObjAddr: 0x1FE4, symBinAddr: 0x10001EB84, symSize: 0x14 }
  - { offsetInCU: 0x14F40, offset: 0x78235, size: 0x8, addend: 0x0, symName: __ZNSt3__117__compressed_pairIfNS_21__unordered_map_equalINS_12basic_stringIcNS_11char_traitsIcEENS_9allocatorIcEEEENS_17__hash_value_typeIS7_P4CityEENS_8equal_toIS7_EENS_4hashIS7_EELb1EEEEC2B8ue170006IfNS_18__default_init_tagEEEOT_OT0_, symObjAddr: 0x1FF8, symBinAddr: 0x10001EB98, symSize: 0x40 }
  - { offsetInCU: 0x14F97, offset: 0x7828C, size: 0x8, addend: 0x0, symName: __ZNSt3__122__compressed_pair_elemIfLi0ELb0EEC2B8ue170006IfvEEOT_, symObjAddr: 0x2038, symBinAddr: 0x10001EBD8, symSize: 0x24 }
  - { offsetInCU: 0x14FD8, offset: 0x782CD, size: 0x8, addend: 0x0, symName: __ZNSt3__122__compressed_pair_elemINS_21__unordered_map_equalINS_12basic_stringIcNS_11char_traitsIcEENS_9allocatorIcEEEENS_17__hash_value_typeIS7_P4CityEENS_8equal_toIS7_EENS_4hashIS7_EELb1EEELi1ELb1EEC2B8ue170006ENS_18__default_init_tagE, symObjAddr: 0x205C, symBinAddr: 0x10001EBFC, symSize: 0x2C }
  - { offsetInCU: 0x1500C, offset: 0x78301, size: 0x8, addend: 0x0, symName: __ZNSt3__121__unordered_map_equalINS_12basic_stringIcNS_11char_traitsIcEENS_9allocatorIcEEEENS_17__hash_value_typeIS6_P4CityEENS_8equal_toIS6_EENS_4hashIS6_EELb1EEC2B8ue170006Ev, symObjAddr: 0x2088, symBinAddr: 0x10001EC28, symSize: 0x14 }
  - { offsetInCU: 0x15035, offset: 0x7832A, size: 0x8, addend: 0x0, symName: __ZNSt3__16vectorINS0_I10BorderTypeNS_9allocatorIS1_EEEENS2_IS4_EEEC2B8ue170006Ev, symObjAddr: 0x21EC, symBinAddr: 0x10001EC3C, symSize: 0x4C }
  - { offsetInCU: 0x1505E, offset: 0x78353, size: 0x8, addend: 0x0, symName: __ZNSt3__117__compressed_pairIPNS_6vectorI10BorderTypeNS_9allocatorIS2_EEEENS3_IS5_EEEC1B8ue170006IDnNS_18__default_init_tagEEEOT_OT0_, symObjAddr: 0x2238, symBinAddr: 0x10001EC88, symSize: 0x3C }
  - { offsetInCU: 0x150B5, offset: 0x783AA, size: 0x8, addend: 0x0, symName: __ZNSt3__117__compressed_pairIPNS_6vectorI10BorderTypeNS_9allocatorIS2_EEEENS3_IS5_EEEC2B8ue170006IDnNS_18__default_init_tagEEEOT_OT0_, symObjAddr: 0x2274, symBinAddr: 0x10001ECC4, symSize: 0x40 }
  - { offsetInCU: 0x1510C, offset: 0x78401, size: 0x8, addend: 0x0, symName: __ZNSt3__122__compressed_pair_elemINS_9allocatorINS_6vectorI10BorderTypeNS1_IS3_EEEEEELi1ELb1EEC2B8ue170006ENS_18__default_init_tagE, symObjAddr: 0x22D0, symBinAddr: 0x10001ED04, symSize: 0x2C }
  - { offsetInCU: 0x15140, offset: 0x78435, size: 0x8, addend: 0x0, symName: __ZNSt3__19allocatorINS_6vectorI10BorderTypeNS0_IS2_EEEEEC2B8ue170006Ev, symObjAddr: 0x22FC, symBinAddr: 0x10001ED30, symSize: 0x2C }
  - { offsetInCU: 0x15169, offset: 0x7845E, size: 0x8, addend: 0x0, symName: __ZNSt3__116__non_trivial_ifILb1ENS_9allocatorINS_6vectorI10BorderTypeNS1_IS3_EEEEEEEC2B8ue170006Ev, symObjAddr: 0x2328, symBinAddr: 0x10001ED5C, symSize: 0x14 }
  - { offsetInCU: 0x15192, offset: 0x78487, size: 0x8, addend: 0x0, symName: __ZN4DiceC2Ev, symObjAddr: 0x233C, symBinAddr: 0x10001ED70, symSize: 0x34 }
  - { offsetInCU: 0x151BB, offset: 0x784B0, size: 0x8, addend: 0x0, symName: __ZNSt3__16vectorIiNS_9allocatorIiEEEC1B8ue170006Ev, symObjAddr: 0x2370, symBinAddr: 0x10001EDA4, symSize: 0x2C }
  - { offsetInCU: 0x151E4, offset: 0x784D9, size: 0x8, addend: 0x0, symName: __ZNSt3__16vectorIiNS_9allocatorIiEEEC2B8ue170006Ev, symObjAddr: 0x239C, symBinAddr: 0x10001EDD0, symSize: 0x4C }
  - { offsetInCU: 0x1520D, offset: 0x78502, size: 0x8, addend: 0x0, symName: __ZNSt3__117__compressed_pairIPiNS_9allocatorIiEEEC1B8ue170006IDnNS_18__default_init_tagEEEOT_OT0_, symObjAddr: 0x23E8, symBinAddr: 0x10001EE1C, symSize: 0x3C }
  - { offsetInCU: 0x15264, offset: 0x78559, size: 0x8, addend: 0x0, symName: __ZNSt3__117__compressed_pairIPiNS_9allocatorIiEEEC2B8ue170006IDnNS_18__default_init_tagEEEOT_OT0_, symObjAddr: 0x2424, symBinAddr: 0x10001EE58, symSize: 0x40 }
  - { offsetInCU: 0x152BB, offset: 0x785B0, size: 0x8, addend: 0x0, symName: __ZNSt3__122__compressed_pair_elemIPiLi0ELb0EEC2B8ue170006IDnvEEOT_, symObjAddr: 0x2464, symBinAddr: 0x10001EE98, symSize: 0x1C }
  - { offsetInCU: 0x152FC, offset: 0x785F1, size: 0x8, addend: 0x0, symName: __ZNSt3__122__compressed_pair_elemINS_9allocatorIiEELi1ELb1EEC2B8ue170006ENS_18__default_init_tagE, symObjAddr: 0x2480, symBinAddr: 0x10001EEB4, symSize: 0x2C }
  - { offsetInCU: 0x15330, offset: 0x78625, size: 0x8, addend: 0x0, symName: __ZNSt3__19allocatorIiEC2B8ue170006Ev, symObjAddr: 0x24AC, symBinAddr: 0x10001EEE0, symSize: 0x2C }
  - { offsetInCU: 0x15359, offset: 0x7864E, size: 0x8, addend: 0x0, symName: __ZNSt3__116__non_trivial_ifILb1ENS_9allocatorIiEEEC2B8ue170006Ev, symObjAddr: 0x24D8, symBinAddr: 0x10001EF0C, symSize: 0x14 }
  - { offsetInCU: 0x15382, offset: 0x78677, size: 0x8, addend: 0x0, symName: __ZNSt3__15queueIP10ActionCardNS_5dequeIS2_NS_9allocatorIS2_EEEEEC2B8ue170006Ev, symObjAddr: 0x24EC, symBinAddr: 0x10001EF20, symSize: 0x2C }
  - { offsetInCU: 0x153AB, offset: 0x786A0, size: 0x8, addend: 0x0, symName: __ZNSt3__15dequeIP10ActionCardNS_9allocatorIS2_EEEC1B8ue170006Ev, symObjAddr: 0x2518, symBinAddr: 0x10001EF4C, symSize: 0x2C }
  - { offsetInCU: 0x153D4, offset: 0x786C9, size: 0x8, addend: 0x0, symName: __ZNSt3__15dequeIP10ActionCardNS_9allocatorIS2_EEEC2B8ue170006Ev, symObjAddr: 0x2544, symBinAddr: 0x10001EF78, symSize: 0x5C }
  - { offsetInCU: 0x153FD, offset: 0x786F2, size: 0x8, addend: 0x0, symName: __ZNSt3__114__split_bufferIPP10ActionCardNS_9allocatorIS3_EEEC1B8ue170006Ev, symObjAddr: 0x25A0, symBinAddr: 0x10001EFD4, symSize: 0x2C }
  - { offsetInCU: 0x15426, offset: 0x7871B, size: 0x8, addend: 0x0, symName: __ZNSt3__117__compressed_pairImNS_9allocatorIP10ActionCardEEEC1B8ue170006IiNS_18__default_init_tagEEEOT_OT0_, symObjAddr: 0x25CC, symBinAddr: 0x10001F000, symSize: 0x3C }
  - { offsetInCU: 0x1547D, offset: 0x78772, size: 0x8, addend: 0x0, symName: __ZNKSt3__15dequeIP10ActionCardNS_9allocatorIS2_EEE14__annotate_newB8ue170006Em, symObjAddr: 0x2608, symBinAddr: 0x10001F03C, symSize: 0xC8 }
  - { offsetInCU: 0x154B1, offset: 0x787A6, size: 0x8, addend: 0x0, symName: __ZNSt3__114__split_bufferIPP10ActionCardNS_9allocatorIS3_EEEC2B8ue170006Ev, symObjAddr: 0x26D0, symBinAddr: 0x10001F104, symSize: 0x50 }
  - { offsetInCU: 0x154DA, offset: 0x787CF, size: 0x8, addend: 0x0, symName: __ZNSt3__117__compressed_pairIPPP10ActionCardNS_9allocatorIS3_EEEC1B8ue170006IDnNS_18__default_init_tagEEEOT_OT0_, symObjAddr: 0x2720, symBinAddr: 0x10001F154, symSize: 0x3C }
  - { offsetInCU: 0x15531, offset: 0x78826, size: 0x8, addend: 0x0, symName: __ZNSt3__117__compressed_pairIPPP10ActionCardNS_9allocatorIS3_EEEC2B8ue170006IDnNS_18__default_init_tagEEEOT_OT0_, symObjAddr: 0x275C, symBinAddr: 0x10001F190, symSize: 0x40 }
  - { offsetInCU: 0x15588, offset: 0x7887D, size: 0x8, addend: 0x0, symName: __ZNSt3__122__compressed_pair_elemIPPP10ActionCardLi0ELb0EEC2B8ue170006IDnvEEOT_, symObjAddr: 0x279C, symBinAddr: 0x10001F1D0, symSize: 0x1C }
  - { offsetInCU: 0x155C9, offset: 0x788BE, size: 0x8, addend: 0x0, symName: __ZNSt3__122__compressed_pair_elemINS_9allocatorIPP10ActionCardEELi1ELb1EEC2B8ue170006ENS_18__default_init_tagE, symObjAddr: 0x27B8, symBinAddr: 0x10001F1EC, symSize: 0x2C }
  - { offsetInCU: 0x155FD, offset: 0x788F2, size: 0x8, addend: 0x0, symName: __ZNSt3__19allocatorIPP10ActionCardEC2B8ue170006Ev, symObjAddr: 0x27E4, symBinAddr: 0x10001F218, symSize: 0x2C }
  - { offsetInCU: 0x15626, offset: 0x7891B, size: 0x8, addend: 0x0, symName: __ZNSt3__116__non_trivial_ifILb1ENS_9allocatorIPP10ActionCardEEEC2B8ue170006Ev, symObjAddr: 0x2810, symBinAddr: 0x10001F244, symSize: 0x14 }
  - { offsetInCU: 0x1564F, offset: 0x78944, size: 0x8, addend: 0x0, symName: __ZNSt3__117__compressed_pairImNS_9allocatorIP10ActionCardEEEC2B8ue170006IiNS_18__default_init_tagEEEOT_OT0_, symObjAddr: 0x2824, symBinAddr: 0x10001F258, symSize: 0x40 }
  - { offsetInCU: 0x156A6, offset: 0x7899B, size: 0x8, addend: 0x0, symName: __ZNSt3__122__compressed_pair_elemINS_9allocatorIP10ActionCardEELi1ELb1EEC2B8ue170006ENS_18__default_init_tagE, symObjAddr: 0x2864, symBinAddr: 0x10001F298, symSize: 0x2C }
  - { offsetInCU: 0x156DA, offset: 0x789CF, size: 0x8, addend: 0x0, symName: __ZNSt3__19allocatorIP10ActionCardEC2B8ue170006Ev, symObjAddr: 0x2890, symBinAddr: 0x10001F2C4, symSize: 0x2C }
  - { offsetInCU: 0x15703, offset: 0x789F8, size: 0x8, addend: 0x0, symName: __ZNSt3__116__non_trivial_ifILb1ENS_9allocatorIP10ActionCardEEEC2B8ue170006Ev, symObjAddr: 0x28BC, symBinAddr: 0x10001F2F0, symSize: 0x14 }
  - { offsetInCU: 0x1572C, offset: 0x78A21, size: 0x8, addend: 0x0, symName: __ZNKSt3__15dequeIP10ActionCardNS_9allocatorIS2_EEE18__annotate_from_toB8ue170006EmmNS5_22__asan_annotation_typeENS5_23__asan_annotation_placeE, symObjAddr: 0x28D0, symBinAddr: 0x10001F304, symSize: 0x580 }
  - { offsetInCU: 0x158E9, offset: 0x78BDE, size: 0x8, addend: 0x0, symName: __ZNKSt3__114__split_bufferIPP10ActionCardNS_9allocatorIS3_EEE4sizeB8ue170006Ev, symObjAddr: 0x2E50, symBinAddr: 0x10001F884, symSize: 0x28 }
  - { offsetInCU: 0x1590E, offset: 0x78C03, size: 0x8, addend: 0x0, symName: __ZNKSt3__114__split_bufferIPP10ActionCardNS_9allocatorIS3_EEE5beginB8ue170006Ev, symObjAddr: 0x2E78, symBinAddr: 0x10001F8AC, symSize: 0x18 }
  - { offsetInCU: 0x15933, offset: 0x78C28, size: 0x8, addend: 0x0, symName: __ZNKSt3__15dequeIP10ActionCardNS_9allocatorIS2_EEE4sizeB8ue170006Ev, symObjAddr: 0x2E90, symBinAddr: 0x10001F8C4, symSize: 0x28 }
  - { offsetInCU: 0x15958, offset: 0x78C4D, size: 0x8, addend: 0x0, symName: __ZNKSt3__15dequeIP10ActionCardNS_9allocatorIS2_EEE5emptyB8ue170006Ev, symObjAddr: 0x2EB8, symBinAddr: 0x10001F8EC, symSize: 0x30 }
  - { offsetInCU: 0x1597D, offset: 0x78C72, size: 0x8, addend: 0x0, symName: __ZNKSt3__15dequeIP10ActionCardNS_9allocatorIS2_EEE44__annotate_double_ended_contiguous_containerB8ue170006EPKvS7_S7_S7_S7_S7_, symObjAddr: 0x2EFC, symBinAddr: 0x10001F91C, symSize: 0x28 }
  - { offsetInCU: 0x159E4, offset: 0x78CD9, size: 0x8, addend: 0x0, symName: __ZNKSt3__15dequeIP10ActionCardNS_9allocatorIS2_EEE6__sizeB8ue170006Ev, symObjAddr: 0x2F24, symBinAddr: 0x10001F944, symSize: 0x28 }
  - { offsetInCU: 0x15A09, offset: 0x78CFE, size: 0x8, addend: 0x0, symName: __ZNKSt3__117__compressed_pairImNS_9allocatorIP10ActionCardEEE5firstB8ue170006Ev, symObjAddr: 0x2F4C, symBinAddr: 0x10001F96C, symSize: 0x24 }
  - { offsetInCU: 0x15A2E, offset: 0x78D23, size: 0x8, addend: 0x0, symName: __ZNSt3__16vectorIP10ActionCardNS_9allocatorIS2_EEEC2B8ue170006Ev, symObjAddr: 0x2F84, symBinAddr: 0x10001F990, symSize: 0x4C }
  - { offsetInCU: 0x15A57, offset: 0x78D4C, size: 0x8, addend: 0x0, symName: __ZNSt3__117__compressed_pairIPP10ActionCardNS_9allocatorIS2_EEEC1B8ue170006IDnNS_18__default_init_tagEEEOT_OT0_, symObjAddr: 0x2FD0, symBinAddr: 0x10001F9DC, symSize: 0x3C }
  - { offsetInCU: 0x15AAE, offset: 0x78DA3, size: 0x8, addend: 0x0, symName: __ZNSt3__117__compressed_pairIPP10ActionCardNS_9allocatorIS2_EEEC2B8ue170006IDnNS_18__default_init_tagEEEOT_OT0_, symObjAddr: 0x300C, symBinAddr: 0x10001FA18, symSize: 0x40 }
  - { offsetInCU: 0x15B05, offset: 0x78DFA, size: 0x8, addend: 0x0, symName: __ZNSt3__15queueIP14InvestmentCardNS_5dequeIS2_NS_9allocatorIS2_EEEEEC2B8ue170006Ev, symObjAddr: 0x3068, symBinAddr: 0x10001FA58, symSize: 0x2C }
  - { offsetInCU: 0x15B2E, offset: 0x78E23, size: 0x8, addend: 0x0, symName: __ZNSt3__15dequeIP14InvestmentCardNS_9allocatorIS2_EEEC1B8ue170006Ev, symObjAddr: 0x3094, symBinAddr: 0x10001FA84, symSize: 0x2C }
  - { offsetInCU: 0x15B57, offset: 0x78E4C, size: 0x8, addend: 0x0, symName: __ZNSt3__15dequeIP14InvestmentCardNS_9allocatorIS2_EEEC2B8ue170006Ev, symObjAddr: 0x30C0, symBinAddr: 0x10001FAB0, symSize: 0x5C }
  - { offsetInCU: 0x15B80, offset: 0x78E75, size: 0x8, addend: 0x0, symName: __ZNSt3__114__split_bufferIPP14InvestmentCardNS_9allocatorIS3_EEEC1B8ue170006Ev, symObjAddr: 0x311C, symBinAddr: 0x10001FB0C, symSize: 0x2C }
  - { offsetInCU: 0x15BA9, offset: 0x78E9E, size: 0x8, addend: 0x0, symName: __ZNSt3__117__compressed_pairImNS_9allocatorIP14InvestmentCardEEEC1B8ue170006IiNS_18__default_init_tagEEEOT_OT0_, symObjAddr: 0x3148, symBinAddr: 0x10001FB38, symSize: 0x3C }
  - { offsetInCU: 0x15C00, offset: 0x78EF5, size: 0x8, addend: 0x0, symName: __ZNKSt3__15dequeIP14InvestmentCardNS_9allocatorIS2_EEE14__annotate_newB8ue170006Em, symObjAddr: 0x3184, symBinAddr: 0x10001FB74, symSize: 0xC8 }
  - { offsetInCU: 0x15C34, offset: 0x78F29, size: 0x8, addend: 0x0, symName: __ZNSt3__114__split_bufferIPP14InvestmentCardNS_9allocatorIS3_EEEC2B8ue170006Ev, symObjAddr: 0x324C, symBinAddr: 0x10001FC3C, symSize: 0x50 }
  - { offsetInCU: 0x15C5D, offset: 0x78F52, size: 0x8, addend: 0x0, symName: __ZNSt3__117__compressed_pairIPPP14InvestmentCardNS_9allocatorIS3_EEEC1B8ue170006IDnNS_18__default_init_tagEEEOT_OT0_, symObjAddr: 0x329C, symBinAddr: 0x10001FC8C, symSize: 0x3C }
  - { offsetInCU: 0x15CB4, offset: 0x78FA9, size: 0x8, addend: 0x0, symName: __ZNSt3__117__compressed_pairIPPP14InvestmentCardNS_9allocatorIS3_EEEC2B8ue170006IDnNS_18__default_init_tagEEEOT_OT0_, symObjAddr: 0x32D8, symBinAddr: 0x10001FCC8, symSize: 0x40 }
  - { offsetInCU: 0x15D0B, offset: 0x79000, size: 0x8, addend: 0x0, symName: __ZNSt3__122__compressed_pair_elemIPPP14InvestmentCardLi0ELb0EEC2B8ue170006IDnvEEOT_, symObjAddr: 0x3318, symBinAddr: 0x10001FD08, symSize: 0x1C }
  - { offsetInCU: 0x15D4C, offset: 0x79041, size: 0x8, addend: 0x0, symName: __ZNSt3__122__compressed_pair_elemINS_9allocatorIPP14InvestmentCardEELi1ELb1EEC2B8ue170006ENS_18__default_init_tagE, symObjAddr: 0x3334, symBinAddr: 0x10001FD24, symSize: 0x2C }
  - { offsetInCU: 0x15D80, offset: 0x79075, size: 0x8, addend: 0x0, symName: __ZNSt3__19allocatorIPP14InvestmentCardEC2B8ue170006Ev, symObjAddr: 0x3360, symBinAddr: 0x10001FD50, symSize: 0x2C }
  - { offsetInCU: 0x15DA9, offset: 0x7909E, size: 0x8, addend: 0x0, symName: __ZNSt3__116__non_trivial_ifILb1ENS_9allocatorIPP14InvestmentCardEEEC2B8ue170006Ev, symObjAddr: 0x338C, symBinAddr: 0x10001FD7C, symSize: 0x14 }
  - { offsetInCU: 0x15DD2, offset: 0x790C7, size: 0x8, addend: 0x0, symName: __ZNSt3__117__compressed_pairImNS_9allocatorIP14InvestmentCardEEEC2B8ue170006IiNS_18__default_init_tagEEEOT_OT0_, symObjAddr: 0x33A0, symBinAddr: 0x10001FD90, symSize: 0x40 }
  - { offsetInCU: 0x15E29, offset: 0x7911E, size: 0x8, addend: 0x0, symName: __ZNSt3__122__compressed_pair_elemINS_9allocatorIP14InvestmentCardEELi1ELb1EEC2B8ue170006ENS_18__default_init_tagE, symObjAddr: 0x33E0, symBinAddr: 0x10001FDD0, symSize: 0x2C }
  - { offsetInCU: 0x15E5D, offset: 0x79152, size: 0x8, addend: 0x0, symName: __ZNSt3__19allocatorIP14InvestmentCardEC2B8ue170006Ev, symObjAddr: 0x340C, symBinAddr: 0x10001FDFC, symSize: 0x2C }
  - { offsetInCU: 0x15E86, offset: 0x7917B, size: 0x8, addend: 0x0, symName: __ZNSt3__116__non_trivial_ifILb1ENS_9allocatorIP14InvestmentCardEEEC2B8ue170006Ev, symObjAddr: 0x3438, symBinAddr: 0x10001FE28, symSize: 0x14 }
  - { offsetInCU: 0x15EAF, offset: 0x791A4, size: 0x8, addend: 0x0, symName: __ZNKSt3__15dequeIP14InvestmentCardNS_9allocatorIS2_EEE18__annotate_from_toB8ue170006EmmNS5_22__asan_annotation_typeENS5_23__asan_annotation_placeE, symObjAddr: 0x344C, symBinAddr: 0x10001FE3C, symSize: 0x580 }
  - { offsetInCU: 0x1606C, offset: 0x79361, size: 0x8, addend: 0x0, symName: __ZNKSt3__114__split_bufferIPP14InvestmentCardNS_9allocatorIS3_EEE4sizeB8ue170006Ev, symObjAddr: 0x39CC, symBinAddr: 0x1000203BC, symSize: 0x28 }
  - { offsetInCU: 0x16091, offset: 0x79386, size: 0x8, addend: 0x0, symName: __ZNKSt3__114__split_bufferIPP14InvestmentCardNS_9allocatorIS3_EEE5beginB8ue170006Ev, symObjAddr: 0x39F4, symBinAddr: 0x1000203E4, symSize: 0x18 }
  - { offsetInCU: 0x160B6, offset: 0x793AB, size: 0x8, addend: 0x0, symName: __ZNKSt3__15dequeIP14InvestmentCardNS_9allocatorIS2_EEE4sizeB8ue170006Ev, symObjAddr: 0x3A0C, symBinAddr: 0x1000203FC, symSize: 0x28 }
  - { offsetInCU: 0x160DB, offset: 0x793D0, size: 0x8, addend: 0x0, symName: __ZNKSt3__15dequeIP14InvestmentCardNS_9allocatorIS2_EEE5emptyB8ue170006Ev, symObjAddr: 0x3A34, symBinAddr: 0x100020424, symSize: 0x30 }
  - { offsetInCU: 0x16100, offset: 0x793F5, size: 0x8, addend: 0x0, symName: __ZNKSt3__15dequeIP14InvestmentCardNS_9allocatorIS2_EEE44__annotate_double_ended_contiguous_containerB8ue170006EPKvS7_S7_S7_S7_S7_, symObjAddr: 0x3A78, symBinAddr: 0x100020454, symSize: 0x28 }
  - { offsetInCU: 0x16167, offset: 0x7945C, size: 0x8, addend: 0x0, symName: __ZNKSt3__15dequeIP14InvestmentCardNS_9allocatorIS2_EEE6__sizeB8ue170006Ev, symObjAddr: 0x3AA0, symBinAddr: 0x10002047C, symSize: 0x28 }
  - { offsetInCU: 0x1618C, offset: 0x79481, size: 0x8, addend: 0x0, symName: __ZNKSt3__117__compressed_pairImNS_9allocatorIP14InvestmentCardEEE5firstB8ue170006Ev, symObjAddr: 0x3AC8, symBinAddr: 0x1000204A4, symSize: 0x24 }
  - { offsetInCU: 0x161B1, offset: 0x794A6, size: 0x8, addend: 0x0, symName: __ZNSt3__16vectorIP14InvestmentCardNS_9allocatorIS2_EEEC2B8ue170006Ev, symObjAddr: 0x3AEC, symBinAddr: 0x1000204C8, symSize: 0x4C }
  - { offsetInCU: 0x161DA, offset: 0x794CF, size: 0x8, addend: 0x0, symName: __ZNSt3__117__compressed_pairIPP14InvestmentCardNS_9allocatorIS2_EEEC1B8ue170006IDnNS_18__default_init_tagEEEOT_OT0_, symObjAddr: 0x3B38, symBinAddr: 0x100020514, symSize: 0x3C }
  - { offsetInCU: 0x16231, offset: 0x79526, size: 0x8, addend: 0x0, symName: __ZNSt3__117__compressed_pairIPP14InvestmentCardNS_9allocatorIS2_EEEC2B8ue170006IDnNS_18__default_init_tagEEEOT_OT0_, symObjAddr: 0x3B74, symBinAddr: 0x100020550, symSize: 0x40 }
  - { offsetInCU: 0x16288, offset: 0x7957D, size: 0x8, addend: 0x0, symName: __ZN4DiceC2Eii, symObjAddr: 0x3BD0, symBinAddr: 0x100020590, symSize: 0xB4 }
  - { offsetInCU: 0x162CC, offset: 0x795C1, size: 0x8, addend: 0x0, symName: __ZNSt3__16vectorIiNS_9allocatorIiEEE6resizeEm, symObjAddr: 0x3C84, symBinAddr: 0x100020644, symSize: 0x94 }
  - { offsetInCU: 0x16311, offset: 0x79606, size: 0x8, addend: 0x0, symName: __ZNSt3__16vectorIiNS_9allocatorIiEEED1B8ue170006Ev, symObjAddr: 0x3D18, symBinAddr: 0x1000206D8, symSize: 0x2C }
  - { offsetInCU: 0x1633A, offset: 0x7962F, size: 0x8, addend: 0x0, symName: __ZNKSt3__16vectorIiNS_9allocatorIiEEE4sizeB8ue170006Ev, symObjAddr: 0x3D44, symBinAddr: 0x100020704, symSize: 0x28 }
  - { offsetInCU: 0x1635E, offset: 0x79653, size: 0x8, addend: 0x0, symName: __ZNSt3__16vectorIiNS_9allocatorIiEEE8__appendEm, symObjAddr: 0x3D6C, symBinAddr: 0x10002072C, symSize: 0x108 }
  - { offsetInCU: 0x163B9, offset: 0x796AE, size: 0x8, addend: 0x0, symName: __ZNSt3__16vectorIiNS_9allocatorIiEEE17__destruct_at_endB8ue170006EPi, symObjAddr: 0x3E74, symBinAddr: 0x100020834, symSize: 0x4C }
  - { offsetInCU: 0x163FC, offset: 0x796F1, size: 0x8, addend: 0x0, symName: __ZNSt3__16vectorIiNS_9allocatorIiEEE9__end_capB8ue170006Ev, symObjAddr: 0x3EC0, symBinAddr: 0x100020880, symSize: 0x28 }
  - { offsetInCU: 0x16420, offset: 0x79715, size: 0x8, addend: 0x0, symName: __ZNSt3__16vectorIiNS_9allocatorIiEEE18__construct_at_endEm, symObjAddr: 0x3EE8, symBinAddr: 0x1000208A8, symSize: 0xC8 }
  - { offsetInCU: 0x16492, offset: 0x79787, size: 0x8, addend: 0x0, symName: __ZNSt3__16vectorIiNS_9allocatorIiEEE7__allocB8ue170006Ev, symObjAddr: 0x3FB0, symBinAddr: 0x100020970, symSize: 0x28 }
  - { offsetInCU: 0x164B6, offset: 0x797AB, size: 0x8, addend: 0x0, symName: __ZNKSt3__16vectorIiNS_9allocatorIiEEE11__recommendB8ue170006Em, symObjAddr: 0x3FD8, symBinAddr: 0x100020998, symSize: 0xB4 }
  - { offsetInCU: 0x1650A, offset: 0x797FF, size: 0x8, addend: 0x0, symName: __ZNSt3__114__split_bufferIiRNS_9allocatorIiEEEC1EmmS3_, symObjAddr: 0x408C, symBinAddr: 0x100020A4C, symSize: 0x44 }
  - { offsetInCU: 0x1655E, offset: 0x79853, size: 0x8, addend: 0x0, symName: __ZNSt3__114__split_bufferIiRNS_9allocatorIiEEE18__construct_at_endEm, symObjAddr: 0x40D0, symBinAddr: 0x100020A90, symSize: 0xB4 }
  - { offsetInCU: 0x165A2, offset: 0x79897, size: 0x8, addend: 0x0, symName: __ZNSt3__114__split_bufferIiRNS_9allocatorIiEEED1Ev, symObjAddr: 0x4294, symBinAddr: 0x100020C54, symSize: 0x2C }
  - { offsetInCU: 0x165CD, offset: 0x798C2, size: 0x8, addend: 0x0, symName: __ZNSt3__117__compressed_pairIPiNS_9allocatorIiEEE5firstB8ue170006Ev, symObjAddr: 0x42C0, symBinAddr: 0x100020C80, symSize: 0x24 }
  - { offsetInCU: 0x165F2, offset: 0x798E7, size: 0x8, addend: 0x0, symName: __ZNSt3__122__compressed_pair_elemIPiLi0ELb0EE5__getB8ue170006Ev, symObjAddr: 0x42E4, symBinAddr: 0x100020CA4, symSize: 0x14 }
  - { offsetInCU: 0x16630, offset: 0x79925, size: 0x8, addend: 0x0, symName: __ZNSt3__16vectorIiNS_9allocatorIiEEE21_ConstructTransactionC1B8ue170006ERS3_m, symObjAddr: 0x42F8, symBinAddr: 0x100020CB8, symSize: 0x3C }
  - { offsetInCU: 0x16677, offset: 0x7996C, size: 0x8, addend: 0x0, symName: __ZNSt3__116allocator_traitsINS_9allocatorIiEEE9constructB8ue170006IiJEvEEvRS2_PT_DpOT0_, symObjAddr: 0x4334, symBinAddr: 0x100020CF4, symSize: 0x2C }
  - { offsetInCU: 0x166B9, offset: 0x799AE, size: 0x8, addend: 0x0, symName: __ZNSt3__16vectorIiNS_9allocatorIiEEE21_ConstructTransactionD1B8ue170006Ev, symObjAddr: 0x4374, symBinAddr: 0x100020D34, symSize: 0x2C }
  - { offsetInCU: 0x166E2, offset: 0x799D7, size: 0x8, addend: 0x0, symName: __ZNSt3__16vectorIiNS_9allocatorIiEEE21_ConstructTransactionC2B8ue170006ERS3_m, symObjAddr: 0x43A0, symBinAddr: 0x100020D60, symSize: 0x44 }
  - { offsetInCU: 0x16729, offset: 0x79A1E, size: 0x8, addend: 0x0, symName: __ZNSt3__19allocatorIiE9constructB8ue170006IiJEEEvPT_DpOT0_, symObjAddr: 0x43E4, symBinAddr: 0x100020DA4, symSize: 0x1C }
  - { offsetInCU: 0x1676A, offset: 0x79A5F, size: 0x8, addend: 0x0, symName: __ZNSt3__16vectorIiNS_9allocatorIiEEE21_ConstructTransactionD2B8ue170006Ev, symObjAddr: 0x4400, symBinAddr: 0x100020DC0, symSize: 0x20 }
  - { offsetInCU: 0x16793, offset: 0x79A88, size: 0x8, addend: 0x0, symName: __ZNSt3__117__compressed_pairIPiNS_9allocatorIiEEE6secondB8ue170006Ev, symObjAddr: 0x4420, symBinAddr: 0x100020DE0, symSize: 0x24 }
  - { offsetInCU: 0x167B8, offset: 0x79AAD, size: 0x8, addend: 0x0, symName: __ZNSt3__122__compressed_pair_elemINS_9allocatorIiEELi1ELb1EE5__getB8ue170006Ev, symObjAddr: 0x4444, symBinAddr: 0x100020E04, symSize: 0x14 }
  - { offsetInCU: 0x167DC, offset: 0x79AD1, size: 0x8, addend: 0x0, symName: __ZNKSt3__16vectorIiNS_9allocatorIiEEE8max_sizeEv, symObjAddr: 0x4458, symBinAddr: 0x100020E18, symSize: 0x60 }
  - { offsetInCU: 0x16803, offset: 0x79AF8, size: 0x8, addend: 0x0, symName: __ZNKSt3__16vectorIiNS_9allocatorIiEEE20__throw_length_errorB8ue170006Ev, symObjAddr: 0x44B8, symBinAddr: 0x100020E78, symSize: 0x1C }
  - { offsetInCU: 0x16828, offset: 0x79B1D, size: 0x8, addend: 0x0, symName: __ZNKSt3__16vectorIiNS_9allocatorIiEEE8capacityB8ue170006Ev, symObjAddr: 0x44D4, symBinAddr: 0x100020E94, symSize: 0x40 }
  - { offsetInCU: 0x16857, offset: 0x79B4C, size: 0x8, addend: 0x0, symName: __ZNSt3__116allocator_traitsINS_9allocatorIiEEE8max_sizeB8ue170006IS2_vEEmRKS2_, symObjAddr: 0x456C, symBinAddr: 0x100020ED4, symSize: 0x24 }
  - { offsetInCU: 0x16885, offset: 0x79B7A, size: 0x8, addend: 0x0, symName: __ZNKSt3__16vectorIiNS_9allocatorIiEEE7__allocB8ue170006Ev, symObjAddr: 0x4590, symBinAddr: 0x100020EF8, symSize: 0x28 }
  - { offsetInCU: 0x168AA, offset: 0x79B9F, size: 0x8, addend: 0x0, symName: __ZNKSt3__19allocatorIiE8max_sizeB8ue170006Ev, symObjAddr: 0x4654, symBinAddr: 0x100020F20, symSize: 0x14 }
  - { offsetInCU: 0x168CF, offset: 0x79BC4, size: 0x8, addend: 0x0, symName: __ZNKSt3__117__compressed_pairIPiNS_9allocatorIiEEE6secondB8ue170006Ev, symObjAddr: 0x4668, symBinAddr: 0x100020F34, symSize: 0x24 }
  - { offsetInCU: 0x168F4, offset: 0x79BE9, size: 0x8, addend: 0x0, symName: __ZNKSt3__122__compressed_pair_elemINS_9allocatorIiEELi1ELb1EE5__getB8ue170006Ev, symObjAddr: 0x468C, symBinAddr: 0x100020F58, symSize: 0x14 }
  - { offsetInCU: 0x16919, offset: 0x79C0E, size: 0x8, addend: 0x0, symName: __ZNKSt3__16vectorIiNS_9allocatorIiEEE9__end_capB8ue170006Ev, symObjAddr: 0x478C, symBinAddr: 0x100020F6C, symSize: 0x28 }
  - { offsetInCU: 0x1693E, offset: 0x79C33, size: 0x8, addend: 0x0, symName: __ZNKSt3__117__compressed_pairIPiNS_9allocatorIiEEE5firstB8ue170006Ev, symObjAddr: 0x47B4, symBinAddr: 0x100020F94, symSize: 0x24 }
  - { offsetInCU: 0x16963, offset: 0x79C58, size: 0x8, addend: 0x0, symName: __ZNKSt3__122__compressed_pair_elemIPiLi0ELb0EE5__getB8ue170006Ev, symObjAddr: 0x47D8, symBinAddr: 0x100020FB8, symSize: 0x14 }
  - { offsetInCU: 0x16988, offset: 0x79C7D, size: 0x8, addend: 0x0, symName: __ZNSt3__114__split_bufferIiRNS_9allocatorIiEEEC2EmmS3_, symObjAddr: 0x4840, symBinAddr: 0x100020FCC, symSize: 0xD4 }
  - { offsetInCU: 0x169FB, offset: 0x79CF0, size: 0x8, addend: 0x0, symName: __ZNSt3__117__compressed_pairIPiRNS_9allocatorIiEEEC1B8ue170006IDnS4_EEOT_OT0_, symObjAddr: 0x4914, symBinAddr: 0x1000210A0, symSize: 0x3C }
  - { offsetInCU: 0x16A52, offset: 0x79D47, size: 0x8, addend: 0x0, symName: __ZNSt3__114__split_bufferIiRNS_9allocatorIiEEE7__allocB8ue170006Ev, symObjAddr: 0x4990, symBinAddr: 0x10002111C, symSize: 0x28 }
  - { offsetInCU: 0x16A77, offset: 0x79D6C, size: 0x8, addend: 0x0, symName: __ZNSt3__114__split_bufferIiRNS_9allocatorIiEEE9__end_capB8ue170006Ev, symObjAddr: 0x49B8, symBinAddr: 0x100021144, symSize: 0x28 }
  - { offsetInCU: 0x16A9C, offset: 0x79D91, size: 0x8, addend: 0x0, symName: __ZNSt3__117__compressed_pairIPiRNS_9allocatorIiEEEC2B8ue170006IDnS4_EEOT_OT0_, symObjAddr: 0x49E0, symBinAddr: 0x10002116C, symSize: 0x48 }
  - { offsetInCU: 0x16AF3, offset: 0x79DE8, size: 0x8, addend: 0x0, symName: __ZNSt3__122__compressed_pair_elemIRNS_9allocatorIiEELi1ELb0EEC2B8ue170006IS3_vEEOT_, symObjAddr: 0x4A28, symBinAddr: 0x1000211B4, symSize: 0x20 }
  - { offsetInCU: 0x16B34, offset: 0x79E29, size: 0x8, addend: 0x0, symName: __ZNSt3__19allocatorIiE8allocateB8ue170006Em, symObjAddr: 0x4A48, symBinAddr: 0x1000211D4, symSize: 0x58 }
  - { offsetInCU: 0x16B67, offset: 0x79E5C, size: 0x8, addend: 0x0, symName: __ZNSt3__117__compressed_pairIPiRNS_9allocatorIiEEE6secondB8ue170006Ev, symObjAddr: 0x4B20, symBinAddr: 0x10002122C, symSize: 0x28 }
  - { offsetInCU: 0x16B8C, offset: 0x79E81, size: 0x8, addend: 0x0, symName: __ZNSt3__122__compressed_pair_elemIRNS_9allocatorIiEELi1ELb0EE5__getB8ue170006Ev, symObjAddr: 0x4B48, symBinAddr: 0x100021254, symSize: 0x18 }
  - { offsetInCU: 0x16BB1, offset: 0x79EA6, size: 0x8, addend: 0x0, symName: __ZNSt3__117__compressed_pairIPiRNS_9allocatorIiEEE5firstB8ue170006Ev, symObjAddr: 0x4B60, symBinAddr: 0x10002126C, symSize: 0x24 }
  - { offsetInCU: 0x16BE0, offset: 0x79ED5, size: 0x8, addend: 0x0, symName: __ZNSt3__114__split_bufferIiRNS_9allocatorIiEEE21_ConstructTransactionC1B8ue170006EPPim, symObjAddr: 0x4B84, symBinAddr: 0x100021290, symSize: 0x3C }
  - { offsetInCU: 0x16C25, offset: 0x79F1A, size: 0x8, addend: 0x0, symName: __ZNSt3__114__split_bufferIiRNS_9allocatorIiEEE21_ConstructTransactionD1B8ue170006Ev, symObjAddr: 0x4BC0, symBinAddr: 0x1000212CC, symSize: 0x2C }
  - { offsetInCU: 0x16C4E, offset: 0x79F43, size: 0x8, addend: 0x0, symName: __ZNSt3__114__split_bufferIiRNS_9allocatorIiEEE21_ConstructTransactionC2B8ue170006EPPim, symObjAddr: 0x4BEC, symBinAddr: 0x1000212F8, symSize: 0x44 }
  - { offsetInCU: 0x16C93, offset: 0x79F88, size: 0x8, addend: 0x0, symName: __ZNSt3__114__split_bufferIiRNS_9allocatorIiEEE21_ConstructTransactionD2B8ue170006Ev, symObjAddr: 0x4C30, symBinAddr: 0x10002133C, symSize: 0x20 }
  - { offsetInCU: 0x16CBC, offset: 0x79FB1, size: 0x8, addend: 0x0, symName: __ZNKSt3__16vectorIiNS_9allocatorIiEEE17__annotate_deleteB8ue170006Ev, symObjAddr: 0x4C50, symBinAddr: 0x10002135C, symSize: 0xB8 }
  - { offsetInCU: 0x16CE1, offset: 0x79FD6, size: 0x8, addend: 0x0, symName: __ZNSt3__116reverse_iteratorIPiEC1B8ue170006ES1_, symObjAddr: 0x4D80, symBinAddr: 0x10002148C, symSize: 0x34 }
  - { offsetInCU: 0x16D18, offset: 0x7A00D, size: 0x8, addend: 0x0, symName: __ZNKSt3__116reverse_iteratorIPiE4baseB8ue170006Ev, symObjAddr: 0x4DB4, symBinAddr: 0x1000214C0, symSize: 0x18 }
  - { offsetInCU: 0x16D3D, offset: 0x7A032, size: 0x8, addend: 0x0, symName: __ZNKSt3__16vectorIiNS_9allocatorIiEEE14__annotate_newB8ue170006Em, symObjAddr: 0x4E08, symBinAddr: 0x100021514, symSize: 0xAC }
  - { offsetInCU: 0x16D71, offset: 0x7A066, size: 0x8, addend: 0x0, symName: __ZNKSt3__16vectorIiNS_9allocatorIiEEE31__annotate_contiguous_containerB8ue170006EPKvS5_S5_S5_, symObjAddr: 0x4EB4, symBinAddr: 0x1000215C0, symSize: 0x20 }
  - { offsetInCU: 0x16DC2, offset: 0x7A0B7, size: 0x8, addend: 0x0, symName: __ZNKSt3__16vectorIiNS_9allocatorIiEEE4dataB8ue170006Ev, symObjAddr: 0x4ED4, symBinAddr: 0x1000215E0, symSize: 0x28 }
  - { offsetInCU: 0x16E0A, offset: 0x7A0FF, size: 0x8, addend: 0x0, symName: __ZNKSt3__111__move_loopINS_17_ClassicAlgPolicyEEclB8ue170006INS_16reverse_iteratorIPiEES6_S6_EENS_4pairIT_T1_EES8_T0_S9_, symObjAddr: 0x51EC, symBinAddr: 0x1000218F8, symSize: 0xA0 }
  - { offsetInCU: 0x16E74, offset: 0x7A169, size: 0x8, addend: 0x0, symName: __ZNSt3__18_IterOpsINS_17_ClassicAlgPolicyEE11__iter_moveB8ue170006IRNS_16reverse_iteratorIPiEEEENS_9enable_ifIXsr12is_referenceIDTdeclsr3stdE7declvalIRT_EEEEE5valueEDTclsr3stdE4movedeclsr3stdE7declvalISA_EEEEE4typeEOS9_, symObjAddr: 0x5420, symBinAddr: 0x100021B2C, symSize: 0x28 }
  - { offsetInCU: 0x16EA0, offset: 0x7A195, size: 0x8, addend: 0x0, symName: __ZNKSt3__116reverse_iteratorIPiEdeB8ue170006Ev, symObjAddr: 0x5448, symBinAddr: 0x100021B54, symSize: 0x28 }
  - { offsetInCU: 0x16ED3, offset: 0x7A1C8, size: 0x8, addend: 0x0, symName: __ZNSt3__116reverse_iteratorIPiEppB8ue170006Ev, symObjAddr: 0x5470, symBinAddr: 0x100021B7C, symSize: 0x20 }
  - { offsetInCU: 0x16EF8, offset: 0x7A1ED, size: 0x8, addend: 0x0, symName: __ZNSt3__18_IterOpsINS_17_ClassicAlgPolicyEE25__validate_iter_referenceB8ue170006IRNS_16reverse_iteratorIPiEEEEvv, symObjAddr: 0x5490, symBinAddr: 0x100021B9C, symSize: 0x4 }
  - { offsetInCU: 0x16F16, offset: 0x7A20B, size: 0x8, addend: 0x0, symName: __ZNSt3__118__unwrap_iter_implINS_16reverse_iteratorIPiEELb0EE8__unwrapB8ue170006ES3_, symObjAddr: 0x5494, symBinAddr: 0x100021BA0, symSize: 0x24 }
  - { offsetInCU: 0x16F3E, offset: 0x7A233, size: 0x8, addend: 0x0, symName: __ZNSt3__14pairINS_16reverse_iteratorIPiEES3_EC1B8ue170006IS3_S3_LPv0EEEOT_OT0_, symObjAddr: 0x54B8, symBinAddr: 0x100021BC4, symSize: 0x3C }
  - { offsetInCU: 0x16F9B, offset: 0x7A290, size: 0x8, addend: 0x0, symName: __ZNSt3__14pairINS_16reverse_iteratorIPiEES3_EC2B8ue170006IS3_S3_LPv0EEEOT_OT0_, symObjAddr: 0x54F4, symBinAddr: 0x100021C00, symSize: 0x34 }
  - { offsetInCU: 0x16FF8, offset: 0x7A2ED, size: 0x8, addend: 0x0, symName: __ZNSt3__118__unwrap_iter_implINS_16reverse_iteratorIPiEELb0EE8__rewrapB8ue170006ES3_S3_, symObjAddr: 0x5528, symBinAddr: 0x100021C34, symSize: 0x2C }
  - { offsetInCU: 0x17026, offset: 0x7A31B, size: 0x8, addend: 0x0, symName: __ZNSt3__116reverse_iteratorIPiEC2B8ue170006ES1_, symObjAddr: 0x5554, symBinAddr: 0x100021C60, symSize: 0x28 }
  - { offsetInCU: 0x1705D, offset: 0x7A352, size: 0x8, addend: 0x0, symName: __ZNSt3__114__split_bufferIiRNS_9allocatorIiEEED2Ev, symObjAddr: 0x557C, symBinAddr: 0x100021C88, symSize: 0x8C }
  - { offsetInCU: 0x17088, offset: 0x7A37D, size: 0x8, addend: 0x0, symName: __ZNSt3__114__split_bufferIiRNS_9allocatorIiEEE5clearB8ue170006Ev, symObjAddr: 0x5608, symBinAddr: 0x100021D14, symSize: 0x28 }
  - { offsetInCU: 0x170AD, offset: 0x7A3A2, size: 0x8, addend: 0x0, symName: __ZNSt3__116allocator_traitsINS_9allocatorIiEEE10deallocateB8ue170006ERS2_Pim, symObjAddr: 0x5630, symBinAddr: 0x100021D3C, symSize: 0x34 }
  - { offsetInCU: 0x170EF, offset: 0x7A3E4, size: 0x8, addend: 0x0, symName: __ZNKSt3__114__split_bufferIiRNS_9allocatorIiEEE8capacityB8ue170006Ev, symObjAddr: 0x5664, symBinAddr: 0x100021D70, symSize: 0x40 }
  - { offsetInCU: 0x17114, offset: 0x7A409, size: 0x8, addend: 0x0, symName: __ZNSt3__114__split_bufferIiRNS_9allocatorIiEEE17__destruct_at_endB8ue170006EPi, symObjAddr: 0x56A4, symBinAddr: 0x100021DB0, symSize: 0x2C }
  - { offsetInCU: 0x17146, offset: 0x7A43B, size: 0x8, addend: 0x0, symName: __ZNSt3__114__split_bufferIiRNS_9allocatorIiEEE17__destruct_at_endB8ue170006EPiNS_17integral_constantIbLb0EEE, symObjAddr: 0x56D0, symBinAddr: 0x100021DDC, symSize: 0x80 }
  - { offsetInCU: 0x17186, offset: 0x7A47B, size: 0x8, addend: 0x0, symName: __ZNSt3__116allocator_traitsINS_9allocatorIiEEE7destroyB8ue170006IivEEvRS2_PT_, symObjAddr: 0x5750, symBinAddr: 0x100021E5C, symSize: 0x2C }
  - { offsetInCU: 0x171C3, offset: 0x7A4B8, size: 0x8, addend: 0x0, symName: __ZNSt3__19allocatorIiE7destroyB8ue170006EPi, symObjAddr: 0x577C, symBinAddr: 0x100021E88, symSize: 0x14 }
  - { offsetInCU: 0x171F6, offset: 0x7A4EB, size: 0x8, addend: 0x0, symName: __ZNSt3__19allocatorIiE10deallocateB8ue170006EPim, symObjAddr: 0x5790, symBinAddr: 0x100021E9C, symSize: 0x40 }
  - { offsetInCU: 0x17237, offset: 0x7A52C, size: 0x8, addend: 0x0, symName: __ZNKSt3__114__split_bufferIiRNS_9allocatorIiEEE9__end_capB8ue170006Ev, symObjAddr: 0x57D0, symBinAddr: 0x100021EDC, symSize: 0x28 }
  - { offsetInCU: 0x1725C, offset: 0x7A551, size: 0x8, addend: 0x0, symName: __ZNKSt3__117__compressed_pairIPiRNS_9allocatorIiEEE5firstB8ue170006Ev, symObjAddr: 0x57F8, symBinAddr: 0x100021F04, symSize: 0x24 }
  - { offsetInCU: 0x17281, offset: 0x7A576, size: 0x8, addend: 0x0, symName: __ZNSt3__16vectorIiNS_9allocatorIiEEE22__base_destruct_at_endB8ue170006EPi, symObjAddr: 0x581C, symBinAddr: 0x100021F28, symSize: 0x8C }
  - { offsetInCU: 0x172C4, offset: 0x7A5B9, size: 0x8, addend: 0x0, symName: __ZNKSt3__16vectorIiNS_9allocatorIiEEE17__annotate_shrinkB8ue170006Em, symObjAddr: 0x58A8, symBinAddr: 0x100021FB4, symSize: 0xB4 }
  - { offsetInCU: 0x172F8, offset: 0x7A5ED, size: 0x8, addend: 0x0, symName: __ZNSt3__16vectorIiNS_9allocatorIiEEED2B8ue170006Ev, symObjAddr: 0x595C, symBinAddr: 0x100022068, symSize: 0x44 }
  - { offsetInCU: 0x17321, offset: 0x7A616, size: 0x8, addend: 0x0, symName: __ZNSt3__16vectorIiNS_9allocatorIiEEE16__destroy_vectorC1B8ue170006ERS3_, symObjAddr: 0x59A0, symBinAddr: 0x1000220AC, symSize: 0x34 }
  - { offsetInCU: 0x17359, offset: 0x7A64E, size: 0x8, addend: 0x0, symName: __ZNSt3__16vectorIiNS_9allocatorIiEEE16__destroy_vectorclB8ue170006Ev, symObjAddr: 0x59D4, symBinAddr: 0x1000220E0, symSize: 0x90 }
  - { offsetInCU: 0x1737E, offset: 0x7A673, size: 0x8, addend: 0x0, symName: __ZNSt3__16vectorIiNS_9allocatorIiEEE16__destroy_vectorC2B8ue170006ERS3_, symObjAddr: 0x5A64, symBinAddr: 0x100022170, symSize: 0x20 }
  - { offsetInCU: 0x173B6, offset: 0x7A6AB, size: 0x8, addend: 0x0, symName: __ZNSt3__16vectorIiNS_9allocatorIiEEE7__clearB8ue170006Ev, symObjAddr: 0x5A84, symBinAddr: 0x100022190, symSize: 0x28 }
  - { offsetInCU: 0x173DA, offset: 0x7A6CF, size: 0x8, addend: 0x0, symName: __ZNSt3__16vectorIiNS_9allocatorIiEEEaSB8ue170006EOS3_, symObjAddr: 0x5AAC, symBinAddr: 0x1000221B8, symSize: 0x34 }
  - { offsetInCU: 0x1740F, offset: 0x7A704, size: 0x8, addend: 0x0, symName: __ZNSt3__16vectorIiNS_9allocatorIiEEE13__move_assignERS3_NS_17integral_constantIbLb1EEE, symObjAddr: 0x5AE0, symBinAddr: 0x1000221EC, symSize: 0x94 }
  - { offsetInCU: 0x1744F, offset: 0x7A744, size: 0x8, addend: 0x0, symName: __ZNSt3__16vectorIiNS_9allocatorIiEEE13__vdeallocateEv, symObjAddr: 0x5B74, symBinAddr: 0x100022280, symSize: 0x94 }
  - { offsetInCU: 0x17476, offset: 0x7A76B, size: 0x8, addend: 0x0, symName: __ZNSt3__16vectorIiNS_9allocatorIiEEE19__move_assign_allocB8ue170006ERS3_, symObjAddr: 0x5C08, symBinAddr: 0x100022314, symSize: 0x2C }
  - { offsetInCU: 0x174AA, offset: 0x7A79F, size: 0x8, addend: 0x0, symName: __ZNSt3__16vectorIiNS_9allocatorIiEEE5clearB8ue170006Ev, symObjAddr: 0x5C34, symBinAddr: 0x100022340, symSize: 0x44 }
  - { offsetInCU: 0x174DE, offset: 0x7A7D3, size: 0x8, addend: 0x0, symName: __ZNSt3__16vectorIiNS_9allocatorIiEEE19__move_assign_allocB8ue170006ERS3_NS_17integral_constantIbLb1EEE, symObjAddr: 0x5C78, symBinAddr: 0x100022384, symSize: 0x38 }
  - { offsetInCU: 0x1751D, offset: 0x7A812, size: 0x8, addend: 0x0, symName: __ZN4DiceD2Ev, symObjAddr: 0x5CB0, symBinAddr: 0x1000223BC, symSize: 0x2C }
  - { offsetInCU: 0x17548, offset: 0x7A83D, size: 0x8, addend: 0x0, symName: __ZNSt3__112basic_stringIcNS_11char_traitsIcEENS_9allocatorIcEEEC2B8ue170006ILi0EEEPKc, symObjAddr: 0x5CDC, symBinAddr: 0x1000223E8, symSize: 0x58 }
  - { offsetInCU: 0x17586, offset: 0x7A87B, size: 0x8, addend: 0x0, symName: __ZNSt3__111char_traitsIcE6lengthB8ue170006EPKc, symObjAddr: 0x5D34, symBinAddr: 0x100022440, symSize: 0x34 }
  - { offsetInCU: 0x175A9, offset: 0x7A89E, size: 0x8, addend: 0x0, symName: __ZN6PlayerC2ENSt3__112basic_stringIcNS0_11char_traitsIcEENS0_9allocatorIcEEEE8CityType, symObjAddr: 0x5D8C, symBinAddr: 0x100022498, symSize: 0x154 }
  - { offsetInCU: 0x175EE, offset: 0x7A8E3, size: 0x8, addend: 0x0, symName: __ZNSt3__16vectorIP4UnitNS_9allocatorIS2_EEEaSB8ue170006EOS5_, symObjAddr: 0x5F14, symBinAddr: 0x1000225EC, symSize: 0x34 }
  - { offsetInCU: 0x17623, offset: 0x7A918, size: 0x8, addend: 0x0, symName: __ZNSt3__16vectorIP10ActionCardNS_9allocatorIS2_EEEaSB8ue170006EOS5_, symObjAddr: 0x5F48, symBinAddr: 0x100022620, symSize: 0x34 }
  - { offsetInCU: 0x17658, offset: 0x7A94D, size: 0x8, addend: 0x0, symName: __ZNSt3__16vectorIP14InvestmentCardNS_9allocatorIS2_EEEaSB8ue170006EOS5_, symObjAddr: 0x5F7C, symBinAddr: 0x100022654, symSize: 0x34 }
  - { offsetInCU: 0x1768D, offset: 0x7A982, size: 0x8, addend: 0x0, symName: __ZNSt3__16vectorIP4UnitNS_9allocatorIS2_EEE13__move_assignERS5_NS_17integral_constantIbLb1EEE, symObjAddr: 0x634C, symBinAddr: 0x100022688, symSize: 0x94 }
  - { offsetInCU: 0x176CD, offset: 0x7A9C2, size: 0x8, addend: 0x0, symName: __ZNSt3__16vectorIP4UnitNS_9allocatorIS2_EEE13__vdeallocateEv, symObjAddr: 0x63E0, symBinAddr: 0x10002271C, symSize: 0x94 }
  - { offsetInCU: 0x176F4, offset: 0x7A9E9, size: 0x8, addend: 0x0, symName: __ZNSt3__16vectorIP4UnitNS_9allocatorIS2_EEE19__move_assign_allocB8ue170006ERS5_, symObjAddr: 0x6474, symBinAddr: 0x1000227B0, symSize: 0x2C }
  - { offsetInCU: 0x17728, offset: 0x7AA1D, size: 0x8, addend: 0x0, symName: __ZNSt3__16vectorIP4UnitNS_9allocatorIS2_EEE5clearB8ue170006Ev, symObjAddr: 0x64C8, symBinAddr: 0x1000227DC, symSize: 0x44 }
  - { offsetInCU: 0x1775C, offset: 0x7AA51, size: 0x8, addend: 0x0, symName: __ZNSt3__16vectorIP4UnitNS_9allocatorIS2_EEE19__move_assign_allocB8ue170006ERS5_NS_17integral_constantIbLb1EEE, symObjAddr: 0x65C0, symBinAddr: 0x100022820, symSize: 0x38 }
  - { offsetInCU: 0x1779A, offset: 0x7AA8F, size: 0x8, addend: 0x0, symName: __ZNSt3__16vectorIP10ActionCardNS_9allocatorIS2_EEE13__move_assignERS5_NS_17integral_constantIbLb1EEE, symObjAddr: 0x6630, symBinAddr: 0x100022858, symSize: 0x94 }
  - { offsetInCU: 0x177DA, offset: 0x7AACF, size: 0x8, addend: 0x0, symName: __ZNSt3__16vectorIP10ActionCardNS_9allocatorIS2_EEE13__vdeallocateEv, symObjAddr: 0x66C4, symBinAddr: 0x1000228EC, symSize: 0x94 }
  - { offsetInCU: 0x17801, offset: 0x7AAF6, size: 0x8, addend: 0x0, symName: __ZNSt3__16vectorIP10ActionCardNS_9allocatorIS2_EEE19__move_assign_allocB8ue170006ERS5_, symObjAddr: 0x6758, symBinAddr: 0x100022980, symSize: 0x2C }
  - { offsetInCU: 0x17835, offset: 0x7AB2A, size: 0x8, addend: 0x0, symName: __ZNSt3__16vectorIP10ActionCardNS_9allocatorIS2_EEE5clearB8ue170006Ev, symObjAddr: 0x67AC, symBinAddr: 0x1000229AC, symSize: 0x44 }
  - { offsetInCU: 0x17869, offset: 0x7AB5E, size: 0x8, addend: 0x0, symName: __ZNKSt3__16vectorIP10ActionCardNS_9allocatorIS2_EEE17__annotate_shrinkB8ue170006Em, symObjAddr: 0x6994, symBinAddr: 0x1000229F0, symSize: 0xB4 }
  - { offsetInCU: 0x1789D, offset: 0x7AB92, size: 0x8, addend: 0x0, symName: __ZNSt3__16vectorIP10ActionCardNS_9allocatorIS2_EEE19__move_assign_allocB8ue170006ERS5_NS_17integral_constantIbLb1EEE, symObjAddr: 0x6C34, symBinAddr: 0x100022AA4, symSize: 0x38 }
  - { offsetInCU: 0x178DB, offset: 0x7ABD0, size: 0x8, addend: 0x0, symName: __ZNSt3__16vectorIP14InvestmentCardNS_9allocatorIS2_EEE13__move_assignERS5_NS_17integral_constantIbLb1EEE, symObjAddr: 0x6CA4, symBinAddr: 0x100022ADC, symSize: 0x94 }
  - { offsetInCU: 0x1791B, offset: 0x7AC10, size: 0x8, addend: 0x0, symName: __ZNSt3__16vectorIP14InvestmentCardNS_9allocatorIS2_EEE13__vdeallocateEv, symObjAddr: 0x6D38, symBinAddr: 0x100022B70, symSize: 0x94 }
  - { offsetInCU: 0x17942, offset: 0x7AC37, size: 0x8, addend: 0x0, symName: __ZNSt3__16vectorIP14InvestmentCardNS_9allocatorIS2_EEE19__move_assign_allocB8ue170006ERS5_, symObjAddr: 0x6DCC, symBinAddr: 0x100022C04, symSize: 0x2C }
  - { offsetInCU: 0x17976, offset: 0x7AC6B, size: 0x8, addend: 0x0, symName: __ZNSt3__16vectorIP14InvestmentCardNS_9allocatorIS2_EEE5clearB8ue170006Ev, symObjAddr: 0x6E20, symBinAddr: 0x100022C30, symSize: 0x44 }
  - { offsetInCU: 0x179AA, offset: 0x7AC9F, size: 0x8, addend: 0x0, symName: __ZNKSt3__16vectorIP14InvestmentCardNS_9allocatorIS2_EEE17__annotate_shrinkB8ue170006Em, symObjAddr: 0x7008, symBinAddr: 0x100022C74, symSize: 0xB4 }
  - { offsetInCU: 0x179DE, offset: 0x7ACD3, size: 0x8, addend: 0x0, symName: __ZNSt3__16vectorIP14InvestmentCardNS_9allocatorIS2_EEE19__move_assign_allocB8ue170006ERS5_NS_17integral_constantIbLb1EEE, symObjAddr: 0x72A8, symBinAddr: 0x100022D28, symSize: 0x38 }
  - { offsetInCU: 0x17A1D, offset: 0x7AD12, size: 0x8, addend: 0x0, symName: __ZNSt3__15queueIP14InvestmentCardNS_5dequeIS2_NS_9allocatorIS2_EEEEED2Ev, symObjAddr: 0x7440, symBinAddr: 0x100022D60, symSize: 0x2C }
  - { offsetInCU: 0x17A49, offset: 0x7AD3E, size: 0x8, addend: 0x0, symName: __ZNSt3__15dequeIP14InvestmentCardNS_9allocatorIS2_EEED1B8ue170006Ev, symObjAddr: 0x746C, symBinAddr: 0x100022D8C, symSize: 0x2C }
  - { offsetInCU: 0x17A72, offset: 0x7AD67, size: 0x8, addend: 0x0, symName: __ZNSt3__15dequeIP14InvestmentCardNS_9allocatorIS2_EEED2B8ue170006Ev, symObjAddr: 0x7498, symBinAddr: 0x100022DB8, symSize: 0xA4 }
  - { offsetInCU: 0x17AC7, offset: 0x7ADBC, size: 0x8, addend: 0x0, symName: __ZNSt3__15dequeIP14InvestmentCardNS_9allocatorIS2_EEE5clearEv, symObjAddr: 0x753C, symBinAddr: 0x100022E5C, symSize: 0x180 }
  - { offsetInCU: 0x17B22, offset: 0x7AE17, size: 0x8, addend: 0x0, symName: __ZNKSt3__15dequeIP14InvestmentCardNS_9allocatorIS2_EEE17__annotate_deleteB8ue170006Ev, symObjAddr: 0x76BC, symBinAddr: 0x100022FDC, symSize: 0xE8 }
  - { offsetInCU: 0x17B65, offset: 0x7AE5A, size: 0x8, addend: 0x0, symName: __ZNSt3__114__split_bufferIPP14InvestmentCardNS_9allocatorIS3_EEE5beginB8ue170006Ev, symObjAddr: 0x77A4, symBinAddr: 0x1000230C4, symSize: 0x18 }
  - { offsetInCU: 0x17B8A, offset: 0x7AE7F, size: 0x8, addend: 0x0, symName: __ZNSt3__114__split_bufferIPP14InvestmentCardNS_9allocatorIS3_EEE3endB8ue170006Ev, symObjAddr: 0x77BC, symBinAddr: 0x1000230DC, symSize: 0x18 }
  - { offsetInCU: 0x17BAF, offset: 0x7AEA4, size: 0x8, addend: 0x0, symName: __ZNSt3__15dequeIP14InvestmentCardNS_9allocatorIS2_EEE7__allocB8ue170006Ev, symObjAddr: 0x77D4, symBinAddr: 0x1000230F4, symSize: 0x28 }
  - { offsetInCU: 0x17BD4, offset: 0x7AEC9, size: 0x8, addend: 0x0, symName: __ZNSt3__114__split_bufferIPP14InvestmentCardNS_9allocatorIS3_EEED1Ev, symObjAddr: 0x77FC, symBinAddr: 0x10002311C, symSize: 0x2C }
  - { offsetInCU: 0x17BFF, offset: 0x7AEF4, size: 0x8, addend: 0x0, symName: __ZNSt3__15dequeIP14InvestmentCardNS_9allocatorIS2_EEE5beginB8ue170006Ev, symObjAddr: 0x7828, symBinAddr: 0x100023148, symSize: 0xB8 }
  - { offsetInCU: 0x17C33, offset: 0x7AF28, size: 0x8, addend: 0x0, symName: __ZNSt3__15dequeIP14InvestmentCardNS_9allocatorIS2_EEE3endB8ue170006Ev, symObjAddr: 0x78E0, symBinAddr: 0x100023200, symSize: 0xBC }
  - { offsetInCU: 0x17C76, offset: 0x7AF6B, size: 0x8, addend: 0x0, symName: __ZNKSt3__116__deque_iteratorIP14InvestmentCardPS2_RS2_PS3_lLl512EEdeB8ue170006Ev, symObjAddr: 0x79D0, symBinAddr: 0x1000232F0, symSize: 0x18 }
  - { offsetInCU: 0x17C9B, offset: 0x7AF90, size: 0x8, addend: 0x0, symName: __ZNSt3__116__deque_iteratorIP14InvestmentCardPS2_RS2_PS3_lLl512EEppB8ue170006Ev, symObjAddr: 0x79E8, symBinAddr: 0x100023308, symSize: 0x70 }
  - { offsetInCU: 0x17CC0, offset: 0x7AFB5, size: 0x8, addend: 0x0, symName: __ZNSt3__15dequeIP14InvestmentCardNS_9allocatorIS2_EEE6__sizeB8ue170006Ev, symObjAddr: 0x7A58, symBinAddr: 0x100023378, symSize: 0x28 }
  - { offsetInCU: 0x17CE5, offset: 0x7AFDA, size: 0x8, addend: 0x0, symName: __ZNSt3__114__split_bufferIPP14InvestmentCardNS_9allocatorIS3_EEE5frontB8ue170006Ev, symObjAddr: 0x7A80, symBinAddr: 0x1000233A0, symSize: 0x18 }
  - { offsetInCU: 0x17D0A, offset: 0x7AFFF, size: 0x8, addend: 0x0, symName: __ZNSt3__114__split_bufferIPP14InvestmentCardNS_9allocatorIS3_EEE9pop_frontB8ue170006Ev, symObjAddr: 0x7A98, symBinAddr: 0x1000233B8, symSize: 0x2C }
  - { offsetInCU: 0x17D2F, offset: 0x7B024, size: 0x8, addend: 0x0, symName: __ZNKSt3__114__split_bufferIPP14InvestmentCardNS_9allocatorIS3_EEE5emptyB8ue170006Ev, symObjAddr: 0x7AC4, symBinAddr: 0x1000233E4, symSize: 0x28 }
  - { offsetInCU: 0x17D54, offset: 0x7B049, size: 0x8, addend: 0x0, symName: __ZNSt3__116__deque_iteratorIP14InvestmentCardPS2_RS2_PS3_lLl512EEC1B8ue170006ES5_S3_, symObjAddr: 0x7AEC, symBinAddr: 0x10002340C, symSize: 0x3C }
  - { offsetInCU: 0x17D9B, offset: 0x7B090, size: 0x8, addend: 0x0, symName: __ZNSt3__116__deque_iteratorIP14InvestmentCardPS2_RS2_PS3_lLl512EEC2B8ue170006ES5_S3_, symObjAddr: 0x7B28, symBinAddr: 0x100023448, symSize: 0x2C }
  - { offsetInCU: 0x17DE2, offset: 0x7B0D7, size: 0x8, addend: 0x0, symName: __ZNSt3__117__compressed_pairImNS_9allocatorIP14InvestmentCardEEE5firstB8ue170006Ev, symObjAddr: 0x7B84, symBinAddr: 0x1000234A4, symSize: 0x24 }
  - { offsetInCU: 0x17E07, offset: 0x7B0FC, size: 0x8, addend: 0x0, symName: __ZNSt3__114__split_bufferIPP14InvestmentCardNS_9allocatorIS3_EEE19__destruct_at_beginB8ue170006EPS3_, symObjAddr: 0x7BBC, symBinAddr: 0x1000234C8, symSize: 0x2C }
  - { offsetInCU: 0x17E3A, offset: 0x7B12F, size: 0x8, addend: 0x0, symName: __ZNSt3__114__split_bufferIPP14InvestmentCardNS_9allocatorIS3_EEE19__destruct_at_beginEPS3_NS_17integral_constantIbLb1EEE, symObjAddr: 0x7BE8, symBinAddr: 0x1000234F4, symSize: 0x20 }
  - { offsetInCU: 0x17E7A, offset: 0x7B16F, size: 0x8, addend: 0x0, symName: __ZNKSt3__15dequeIP14InvestmentCardNS_9allocatorIS2_EEE22__annotate_whole_blockB8ue170006EmNS5_22__asan_annotation_typeE, symObjAddr: 0x7C08, symBinAddr: 0x100023514, symSize: 0xAC }
  - { offsetInCU: 0x17EEA, offset: 0x7B1DF, size: 0x8, addend: 0x0, symName: __ZNKSt3__15dequeIP14InvestmentCardNS_9allocatorIS2_EEE23__annotate_poison_blockB8ue170006EPKvS7_, symObjAddr: 0x7CB4, symBinAddr: 0x1000235C0, symSize: 0x44 }
  - { offsetInCU: 0x17F2D, offset: 0x7B222, size: 0x8, addend: 0x0, symName: __ZNSt3__117__compressed_pairImNS_9allocatorIP14InvestmentCardEEE6secondB8ue170006Ev, symObjAddr: 0x7CF8, symBinAddr: 0x100023604, symSize: 0x24 }
  - { offsetInCU: 0x17F52, offset: 0x7B247, size: 0x8, addend: 0x0, symName: __ZNSt3__114__split_bufferIPP14InvestmentCardNS_9allocatorIS3_EEED2Ev, symObjAddr: 0x7D1C, symBinAddr: 0x100023628, symSize: 0x8C }
  - { offsetInCU: 0x17F7D, offset: 0x7B272, size: 0x8, addend: 0x0, symName: __ZNSt3__114__split_bufferIPP14InvestmentCardNS_9allocatorIS3_EEE5clearB8ue170006Ev, symObjAddr: 0x7DA8, symBinAddr: 0x1000236B4, symSize: 0x28 }
  - { offsetInCU: 0x17FA2, offset: 0x7B297, size: 0x8, addend: 0x0, symName: __ZNSt3__116allocator_traitsINS_9allocatorIPP14InvestmentCardEEE10deallocateB8ue170006ERS5_PS4_m, symObjAddr: 0x7DD0, symBinAddr: 0x1000236DC, symSize: 0x34 }
  - { offsetInCU: 0x17FE4, offset: 0x7B2D9, size: 0x8, addend: 0x0, symName: __ZNSt3__114__split_bufferIPP14InvestmentCardNS_9allocatorIS3_EEE7__allocB8ue170006Ev, symObjAddr: 0x7E04, symBinAddr: 0x100023710, symSize: 0x28 }
  - { offsetInCU: 0x18009, offset: 0x7B2FE, size: 0x8, addend: 0x0, symName: __ZNKSt3__114__split_bufferIPP14InvestmentCardNS_9allocatorIS3_EEE8capacityB8ue170006Ev, symObjAddr: 0x7E2C, symBinAddr: 0x100023738, symSize: 0x40 }
  - { offsetInCU: 0x1802E, offset: 0x7B323, size: 0x8, addend: 0x0, symName: __ZNSt3__114__split_bufferIPP14InvestmentCardNS_9allocatorIS3_EEE17__destruct_at_endB8ue170006EPS3_, symObjAddr: 0x7E6C, symBinAddr: 0x100023778, symSize: 0x2C }
  - { offsetInCU: 0x18060, offset: 0x7B355, size: 0x8, addend: 0x0, symName: __ZNSt3__114__split_bufferIPP14InvestmentCardNS_9allocatorIS3_EEE17__destruct_at_endB8ue170006EPS3_NS_17integral_constantIbLb0EEE, symObjAddr: 0x7E98, symBinAddr: 0x1000237A4, symSize: 0x80 }
  - { offsetInCU: 0x180A0, offset: 0x7B395, size: 0x8, addend: 0x0, symName: __ZNSt3__116allocator_traitsINS_9allocatorIPP14InvestmentCardEEE7destroyB8ue170006IS4_vEEvRS5_PT_, symObjAddr: 0x7F18, symBinAddr: 0x100023824, symSize: 0x2C }
  - { offsetInCU: 0x180DD, offset: 0x7B3D2, size: 0x8, addend: 0x0, symName: __ZNSt3__19allocatorIPP14InvestmentCardE7destroyB8ue170006EPS3_, symObjAddr: 0x7F58, symBinAddr: 0x100023864, symSize: 0x14 }
  - { offsetInCU: 0x18110, offset: 0x7B405, size: 0x8, addend: 0x0, symName: __ZNSt3__19allocatorIPP14InvestmentCardE10deallocateB8ue170006EPS3_m, symObjAddr: 0x7F6C, symBinAddr: 0x100023878, symSize: 0x40 }
  - { offsetInCU: 0x18151, offset: 0x7B446, size: 0x8, addend: 0x0, symName: __ZNSt3__117__compressed_pairIPPP14InvestmentCardNS_9allocatorIS3_EEE6secondB8ue170006Ev, symObjAddr: 0x7FAC, symBinAddr: 0x1000238B8, symSize: 0x24 }
  - { offsetInCU: 0x18176, offset: 0x7B46B, size: 0x8, addend: 0x0, symName: __ZNSt3__122__compressed_pair_elemINS_9allocatorIPP14InvestmentCardEELi1ELb1EE5__getB8ue170006Ev, symObjAddr: 0x7FD0, symBinAddr: 0x1000238DC, symSize: 0x14 }
  - { offsetInCU: 0x1819B, offset: 0x7B490, size: 0x8, addend: 0x0, symName: __ZNKSt3__114__split_bufferIPP14InvestmentCardNS_9allocatorIS3_EEE9__end_capB8ue170006Ev, symObjAddr: 0x7FE4, symBinAddr: 0x1000238F0, symSize: 0x28 }
  - { offsetInCU: 0x181C0, offset: 0x7B4B5, size: 0x8, addend: 0x0, symName: __ZNKSt3__117__compressed_pairIPPP14InvestmentCardNS_9allocatorIS3_EEE5firstB8ue170006Ev, symObjAddr: 0x800C, symBinAddr: 0x100023918, symSize: 0x24 }
  - { offsetInCU: 0x181E5, offset: 0x7B4DA, size: 0x8, addend: 0x0, symName: __ZNKSt3__122__compressed_pair_elemIPPP14InvestmentCardLi0ELb0EE5__getB8ue170006Ev, symObjAddr: 0x8030, symBinAddr: 0x10002393C, symSize: 0x14 }
  - { offsetInCU: 0x1820A, offset: 0x7B4FF, size: 0x8, addend: 0x0, symName: __ZNSt3__15queueIP10ActionCardNS_5dequeIS2_NS_9allocatorIS2_EEEEED2Ev, symObjAddr: 0x816C, symBinAddr: 0x100023950, symSize: 0x2C }
  - { offsetInCU: 0x18236, offset: 0x7B52B, size: 0x8, addend: 0x0, symName: __ZNSt3__15dequeIP10ActionCardNS_9allocatorIS2_EEED1B8ue170006Ev, symObjAddr: 0x8198, symBinAddr: 0x10002397C, symSize: 0x2C }
  - { offsetInCU: 0x1825F, offset: 0x7B554, size: 0x8, addend: 0x0, symName: __ZNSt3__15dequeIP10ActionCardNS_9allocatorIS2_EEED2B8ue170006Ev, symObjAddr: 0x81C4, symBinAddr: 0x1000239A8, symSize: 0xA4 }
  - { offsetInCU: 0x182B4, offset: 0x7B5A9, size: 0x8, addend: 0x0, symName: __ZNSt3__15dequeIP10ActionCardNS_9allocatorIS2_EEE5clearEv, symObjAddr: 0x8268, symBinAddr: 0x100023A4C, symSize: 0x180 }
  - { offsetInCU: 0x1830F, offset: 0x7B604, size: 0x8, addend: 0x0, symName: __ZNKSt3__15dequeIP10ActionCardNS_9allocatorIS2_EEE17__annotate_deleteB8ue170006Ev, symObjAddr: 0x83E8, symBinAddr: 0x100023BCC, symSize: 0xE8 }
  - { offsetInCU: 0x18352, offset: 0x7B647, size: 0x8, addend: 0x0, symName: __ZNSt3__114__split_bufferIPP10ActionCardNS_9allocatorIS3_EEE5beginB8ue170006Ev, symObjAddr: 0x84D0, symBinAddr: 0x100023CB4, symSize: 0x18 }
  - { offsetInCU: 0x18377, offset: 0x7B66C, size: 0x8, addend: 0x0, symName: __ZNSt3__114__split_bufferIPP10ActionCardNS_9allocatorIS3_EEE3endB8ue170006Ev, symObjAddr: 0x84E8, symBinAddr: 0x100023CCC, symSize: 0x18 }
  - { offsetInCU: 0x1839C, offset: 0x7B691, size: 0x8, addend: 0x0, symName: __ZNSt3__15dequeIP10ActionCardNS_9allocatorIS2_EEE7__allocB8ue170006Ev, symObjAddr: 0x8500, symBinAddr: 0x100023CE4, symSize: 0x28 }
  - { offsetInCU: 0x183C1, offset: 0x7B6B6, size: 0x8, addend: 0x0, symName: __ZNSt3__114__split_bufferIPP10ActionCardNS_9allocatorIS3_EEED1Ev, symObjAddr: 0x8528, symBinAddr: 0x100023D0C, symSize: 0x2C }
  - { offsetInCU: 0x183EC, offset: 0x7B6E1, size: 0x8, addend: 0x0, symName: __ZNSt3__15dequeIP10ActionCardNS_9allocatorIS2_EEE5beginB8ue170006Ev, symObjAddr: 0x8554, symBinAddr: 0x100023D38, symSize: 0xB8 }
  - { offsetInCU: 0x18420, offset: 0x7B715, size: 0x8, addend: 0x0, symName: __ZNSt3__15dequeIP10ActionCardNS_9allocatorIS2_EEE3endB8ue170006Ev, symObjAddr: 0x860C, symBinAddr: 0x100023DF0, symSize: 0xBC }
  - { offsetInCU: 0x18463, offset: 0x7B758, size: 0x8, addend: 0x0, symName: __ZNKSt3__116__deque_iteratorIP10ActionCardPS2_RS2_PS3_lLl512EEdeB8ue170006Ev, symObjAddr: 0x86FC, symBinAddr: 0x100023EE0, symSize: 0x18 }
  - { offsetInCU: 0x18488, offset: 0x7B77D, size: 0x8, addend: 0x0, symName: __ZNSt3__116__deque_iteratorIP10ActionCardPS2_RS2_PS3_lLl512EEppB8ue170006Ev, symObjAddr: 0x8714, symBinAddr: 0x100023EF8, symSize: 0x70 }
  - { offsetInCU: 0x184AD, offset: 0x7B7A2, size: 0x8, addend: 0x0, symName: __ZNSt3__15dequeIP10ActionCardNS_9allocatorIS2_EEE6__sizeB8ue170006Ev, symObjAddr: 0x8784, symBinAddr: 0x100023F68, symSize: 0x28 }
  - { offsetInCU: 0x184D2, offset: 0x7B7C7, size: 0x8, addend: 0x0, symName: __ZNSt3__114__split_bufferIPP10ActionCardNS_9allocatorIS3_EEE5frontB8ue170006Ev, symObjAddr: 0x87AC, symBinAddr: 0x100023F90, symSize: 0x18 }
  - { offsetInCU: 0x184F7, offset: 0x7B7EC, size: 0x8, addend: 0x0, symName: __ZNSt3__114__split_bufferIPP10ActionCardNS_9allocatorIS3_EEE9pop_frontB8ue170006Ev, symObjAddr: 0x87C4, symBinAddr: 0x100023FA8, symSize: 0x2C }
  - { offsetInCU: 0x1851C, offset: 0x7B811, size: 0x8, addend: 0x0, symName: __ZNKSt3__114__split_bufferIPP10ActionCardNS_9allocatorIS3_EEE5emptyB8ue170006Ev, symObjAddr: 0x87F0, symBinAddr: 0x100023FD4, symSize: 0x28 }
  - { offsetInCU: 0x18541, offset: 0x7B836, size: 0x8, addend: 0x0, symName: __ZNSt3__116__deque_iteratorIP10ActionCardPS2_RS2_PS3_lLl512EEC1B8ue170006ES5_S3_, symObjAddr: 0x8818, symBinAddr: 0x100023FFC, symSize: 0x3C }
  - { offsetInCU: 0x18588, offset: 0x7B87D, size: 0x8, addend: 0x0, symName: __ZNSt3__116__deque_iteratorIP10ActionCardPS2_RS2_PS3_lLl512EEC2B8ue170006ES5_S3_, symObjAddr: 0x8854, symBinAddr: 0x100024038, symSize: 0x2C }
  - { offsetInCU: 0x185CF, offset: 0x7B8C4, size: 0x8, addend: 0x0, symName: __ZNSt3__117__compressed_pairImNS_9allocatorIP10ActionCardEEE5firstB8ue170006Ev, symObjAddr: 0x88B0, symBinAddr: 0x100024094, symSize: 0x24 }
  - { offsetInCU: 0x185F4, offset: 0x7B8E9, size: 0x8, addend: 0x0, symName: __ZNSt3__114__split_bufferIPP10ActionCardNS_9allocatorIS3_EEE19__destruct_at_beginB8ue170006EPS3_, symObjAddr: 0x88D4, symBinAddr: 0x1000240B8, symSize: 0x2C }
  - { offsetInCU: 0x18627, offset: 0x7B91C, size: 0x8, addend: 0x0, symName: __ZNSt3__114__split_bufferIPP10ActionCardNS_9allocatorIS3_EEE19__destruct_at_beginEPS3_NS_17integral_constantIbLb1EEE, symObjAddr: 0x8900, symBinAddr: 0x1000240E4, symSize: 0x20 }
  - { offsetInCU: 0x18667, offset: 0x7B95C, size: 0x8, addend: 0x0, symName: __ZNKSt3__15dequeIP10ActionCardNS_9allocatorIS2_EEE22__annotate_whole_blockB8ue170006EmNS5_22__asan_annotation_typeE, symObjAddr: 0x8920, symBinAddr: 0x100024104, symSize: 0xAC }
  - { offsetInCU: 0x186D7, offset: 0x7B9CC, size: 0x8, addend: 0x0, symName: __ZNKSt3__15dequeIP10ActionCardNS_9allocatorIS2_EEE23__annotate_poison_blockB8ue170006EPKvS7_, symObjAddr: 0x89CC, symBinAddr: 0x1000241B0, symSize: 0x44 }
  - { offsetInCU: 0x1871A, offset: 0x7BA0F, size: 0x8, addend: 0x0, symName: __ZNSt3__117__compressed_pairImNS_9allocatorIP10ActionCardEEE6secondB8ue170006Ev, symObjAddr: 0x8A10, symBinAddr: 0x1000241F4, symSize: 0x24 }
  - { offsetInCU: 0x1873F, offset: 0x7BA34, size: 0x8, addend: 0x0, symName: __ZNSt3__114__split_bufferIPP10ActionCardNS_9allocatorIS3_EEED2Ev, symObjAddr: 0x8A34, symBinAddr: 0x100024218, symSize: 0x8C }
  - { offsetInCU: 0x1876A, offset: 0x7BA5F, size: 0x8, addend: 0x0, symName: __ZNSt3__114__split_bufferIPP10ActionCardNS_9allocatorIS3_EEE5clearB8ue170006Ev, symObjAddr: 0x8AC0, symBinAddr: 0x1000242A4, symSize: 0x28 }
  - { offsetInCU: 0x1878F, offset: 0x7BA84, size: 0x8, addend: 0x0, symName: __ZNSt3__116allocator_traitsINS_9allocatorIPP10ActionCardEEE10deallocateB8ue170006ERS5_PS4_m, symObjAddr: 0x8AE8, symBinAddr: 0x1000242CC, symSize: 0x34 }
  - { offsetInCU: 0x187D1, offset: 0x7BAC6, size: 0x8, addend: 0x0, symName: __ZNSt3__114__split_bufferIPP10ActionCardNS_9allocatorIS3_EEE7__allocB8ue170006Ev, symObjAddr: 0x8B1C, symBinAddr: 0x100024300, symSize: 0x28 }
  - { offsetInCU: 0x187F6, offset: 0x7BAEB, size: 0x8, addend: 0x0, symName: __ZNKSt3__114__split_bufferIPP10ActionCardNS_9allocatorIS3_EEE8capacityB8ue170006Ev, symObjAddr: 0x8B44, symBinAddr: 0x100024328, symSize: 0x40 }
  - { offsetInCU: 0x1881B, offset: 0x7BB10, size: 0x8, addend: 0x0, symName: __ZNSt3__114__split_bufferIPP10ActionCardNS_9allocatorIS3_EEE17__destruct_at_endB8ue170006EPS3_, symObjAddr: 0x8B84, symBinAddr: 0x100024368, symSize: 0x2C }
  - { offsetInCU: 0x1884D, offset: 0x7BB42, size: 0x8, addend: 0x0, symName: __ZNSt3__114__split_bufferIPP10ActionCardNS_9allocatorIS3_EEE17__destruct_at_endB8ue170006EPS3_NS_17integral_constantIbLb0EEE, symObjAddr: 0x8BB0, symBinAddr: 0x100024394, symSize: 0x80 }
  - { offsetInCU: 0x1888D, offset: 0x7BB82, size: 0x8, addend: 0x0, symName: __ZNSt3__116allocator_traitsINS_9allocatorIPP10ActionCardEEE7destroyB8ue170006IS4_vEEvRS5_PT_, symObjAddr: 0x8C30, symBinAddr: 0x100024414, symSize: 0x2C }
  - { offsetInCU: 0x188CA, offset: 0x7BBBF, size: 0x8, addend: 0x0, symName: __ZNSt3__19allocatorIPP10ActionCardE7destroyB8ue170006EPS3_, symObjAddr: 0x8C70, symBinAddr: 0x100024454, symSize: 0x14 }
  - { offsetInCU: 0x188FD, offset: 0x7BBF2, size: 0x8, addend: 0x0, symName: __ZNSt3__19allocatorIPP10ActionCardE10deallocateB8ue170006EPS3_m, symObjAddr: 0x8C84, symBinAddr: 0x100024468, symSize: 0x40 }
  - { offsetInCU: 0x1893E, offset: 0x7BC33, size: 0x8, addend: 0x0, symName: __ZNSt3__117__compressed_pairIPPP10ActionCardNS_9allocatorIS3_EEE6secondB8ue170006Ev, symObjAddr: 0x8CC4, symBinAddr: 0x1000244A8, symSize: 0x24 }
  - { offsetInCU: 0x18963, offset: 0x7BC58, size: 0x8, addend: 0x0, symName: __ZNSt3__122__compressed_pair_elemINS_9allocatorIPP10ActionCardEELi1ELb1EE5__getB8ue170006Ev, symObjAddr: 0x8CE8, symBinAddr: 0x1000244CC, symSize: 0x14 }
  - { offsetInCU: 0x18988, offset: 0x7BC7D, size: 0x8, addend: 0x0, symName: __ZNKSt3__114__split_bufferIPP10ActionCardNS_9allocatorIS3_EEE9__end_capB8ue170006Ev, symObjAddr: 0x8CFC, symBinAddr: 0x1000244E0, symSize: 0x28 }
  - { offsetInCU: 0x189AD, offset: 0x7BCA2, size: 0x8, addend: 0x0, symName: __ZNKSt3__117__compressed_pairIPPP10ActionCardNS_9allocatorIS3_EEE5firstB8ue170006Ev, symObjAddr: 0x8D24, symBinAddr: 0x100024508, symSize: 0x24 }
  - { offsetInCU: 0x189D2, offset: 0x7BCC7, size: 0x8, addend: 0x0, symName: __ZNKSt3__122__compressed_pair_elemIPPP10ActionCardLi0ELb0EE5__getB8ue170006Ev, symObjAddr: 0x8D48, symBinAddr: 0x10002452C, symSize: 0x14 }
  - { offsetInCU: 0x189F7, offset: 0x7BCEC, size: 0x8, addend: 0x0, symName: __ZN3MapD2Ev, symObjAddr: 0x8D5C, symBinAddr: 0x100024540, symSize: 0x44 }
  - { offsetInCU: 0x18A22, offset: 0x7BD17, size: 0x8, addend: 0x0, symName: __ZNSt3__16vectorINS0_I10BorderTypeNS_9allocatorIS1_EEEENS2_IS4_EEED1B8ue170006Ev, symObjAddr: 0x8DA0, symBinAddr: 0x100024584, symSize: 0x2C }
  - { offsetInCU: 0x18A4B, offset: 0x7BD40, size: 0x8, addend: 0x0, symName: __ZNSt3__16vectorINS0_I10BorderTypeNS_9allocatorIS1_EEEENS2_IS4_EEED2B8ue170006Ev, symObjAddr: 0x8E24, symBinAddr: 0x1000245B0, symSize: 0x44 }
  - { offsetInCU: 0x18A74, offset: 0x7BD69, size: 0x8, addend: 0x0, symName: __ZNSt3__16vectorINS0_I10BorderTypeNS_9allocatorIS1_EEEENS2_IS4_EEE16__destroy_vectorC1B8ue170006ERS6_, symObjAddr: 0x8E68, symBinAddr: 0x1000245F4, symSize: 0x34 }
  - { offsetInCU: 0x18AAC, offset: 0x7BDA1, size: 0x8, addend: 0x0, symName: __ZNSt3__16vectorINS0_I10BorderTypeNS_9allocatorIS1_EEEENS2_IS4_EEE16__destroy_vectorclB8ue170006Ev, symObjAddr: 0x8E9C, symBinAddr: 0x100024628, symSize: 0x90 }
  - { offsetInCU: 0x18AD1, offset: 0x7BDC6, size: 0x8, addend: 0x0, symName: __ZNSt3__16vectorINS0_I10BorderTypeNS_9allocatorIS1_EEEENS2_IS4_EEE16__destroy_vectorC2B8ue170006ERS6_, symObjAddr: 0x8F2C, symBinAddr: 0x1000246B8, symSize: 0x20 }
  - { offsetInCU: 0x18B09, offset: 0x7BDFE, size: 0x8, addend: 0x0, symName: __ZNSt3__16vectorINS0_I10BorderTypeNS_9allocatorIS1_EEEENS2_IS4_EEE7__clearB8ue170006Ev, symObjAddr: 0x8F4C, symBinAddr: 0x1000246D8, symSize: 0x28 }
  - { offsetInCU: 0x18B2E, offset: 0x7BE23, size: 0x8, addend: 0x0, symName: __ZN4UnitC1Em8CityType8UnitType, symObjAddr: 0xA2DC, symBinAddr: 0x100024700, symSize: 0x44 }
  - { offsetInCU: 0x18B81, offset: 0x7BE76, size: 0x8, addend: 0x0, symName: __ZN4UnitC2Em8CityType8UnitType, symObjAddr: 0xA350, symBinAddr: 0x100024744, symSize: 0x194 }
  - { offsetInCU: 0x18BD4, offset: 0x7BEC9, size: 0x8, addend: 0x0, symName: __ZN3Map10freeMemoryEv, symObjAddr: 0xBEDC, symBinAddr: 0x1000248F8, symSize: 0xDC }
  - { offsetInCU: 0x18C4C, offset: 0x7BF41, size: 0x8, addend: 0x0, symName: __ZN4City10freeMemoryEv, symObjAddr: 0xC064, symBinAddr: 0x1000249D4, symSize: 0x130 }
  - { offsetInCU: 0x18D18, offset: 0x7C00D, size: 0x8, addend: 0x0, symName: __ZN4CityD1Ev, symObjAddr: 0xC194, symBinAddr: 0x100024B04, symSize: 0x2C }
  - { offsetInCU: 0x18D43, offset: 0x7C038, size: 0x8, addend: 0x0, symName: __ZNSt3__16vectorIP4CityNS_9allocatorIS2_EEE5clearB8ue170006Ev, symObjAddr: 0xC1E0, symBinAddr: 0x100024B30, symSize: 0x44 }
  - { offsetInCU: 0x18D77, offset: 0x7C06C, size: 0x8, addend: 0x0, symName: __ZNSt3__113unordered_mapINS_12basic_stringIcNS_11char_traitsIcEENS_9allocatorIcEEEEP4CityNS_4hashIS6_EENS_8equal_toIS6_EENS4_INS_4pairIKS6_S8_EEEEE5clearB8ue170006Ev, symObjAddr: 0xC224, symBinAddr: 0x100024B74, symSize: 0x24 }
  - { offsetInCU: 0x18DB5, offset: 0x7C0AA, size: 0x8, addend: 0x0, symName: __ZN4CityD2Ev, symObjAddr: 0xD378, symBinAddr: 0x100024C78, symSize: 0x7C }
  - { offsetInCU: 0x18DDF, offset: 0x7C0D4, size: 0x8, addend: 0x0, symName: __ZNSt3__112__hash_tableINS_17__hash_value_typeINS_12basic_stringIcNS_11char_traitsIcEENS_9allocatorIcEEEEP4CityEENS_22__unordered_map_hasherIS7_SA_NS_4hashIS7_EENS_8equal_toIS7_EELb1EEENS_21__unordered_map_equalIS7_SA_SF_SD_Lb1EEENS5_ISA_EEE5clearEv, symObjAddr: 0xD4A8, symBinAddr: 0x100024CF4, symSize: 0xCC }
  - { offsetInCU: 0x18E42, offset: 0x7C137, size: 0x8, addend: 0x0, symName: __ZN6RunnerD2Ev, symObjAddr: 0xD5C0, symBinAddr: 0x100024DC0, symSize: 0xB8 }
...
